   1              		.file	"main.c"
   9              	.Ltext0:
  10              		.align	2
  11              		.global	io_read_gpio0_pin
  13              	io_read_gpio0_pin:
  14              	.LFB2:
  15              		.file 1 "../lib/io_driver.c"
   1:../lib/io_driver.c **** #include "io_driver.h"
   2:../lib/io_driver.c **** #include "storm_core.h"
   3:../lib/io_driver.c **** #include "storm_soc_basic.h"
   4:../lib/io_driver.c **** 
   5:../lib/io_driver.c **** // ################################################################################################
   6:../lib/io_driver.c **** // General Purpose IO (GENERAL_PURPOSE_CONTROLLER_0)
   7:../lib/io_driver.c **** // ################################################################################################
   8:../lib/io_driver.c **** 
   9:../lib/io_driver.c **** // ******************************************************************************
  10:../lib/io_driver.c **** // Read general purpose IO pin
  11:../lib/io_driver.c ****    unsigned long io_read_gpio0_pin(unsigned char pin)
  12:../lib/io_driver.c **** // ******************************************************************************
  13:../lib/io_driver.c **** {
  16              	 args = 0, pretend = 0, frame = 0
  17              		@ frame_needed = 0, uses_anonymous_args = 0
  18              		@ link register save eliminated.
  19              	.LVL0:
  20              		.loc 1 17 0
  14:../lib/io_driver.c **** //	unsigned long _cmsr = get_cmsr();
  15:../lib/io_driver.c **** //	set_cmsr(_cmsr  | (1<<CMSR_IRQ) | (1<<CMSR_FIQ));
  16:../lib/io_driver.c **** 
  17:../lib/io_driver.c **** 		unsigned long temp = GPIO0_IN & (1<<pin);
  21              	r3, #61440
  22 0000 E3E03A0F 		ldr	r1, [r3, #-4091]
  23 0004 E5131FFB 		.loc 1 13 0
  24              		and	r2, r0, #255
  25 0008 E20020FF 		.loc 1 21 0
  18:../lib/io_driver.c **** 	
  19:../lib/io_driver.c **** //	set_cmsr(_cmsr);
  20:../lib/io_driver.c **** 	return temp;
  21:../lib/io_driver.c **** }
  26              	r0, #1
  27 000c E3A00001 	.LVL1:
  28              		and	r0, r1, r0, asl r2
  29 0010 E0010210 		.loc 1 13 0
  30              		@ lr needed for prologue
  31              		.loc 1 21 0
  32              		mov	pc, lr
  33 0014 E1A0F00E 	.LFE2:
  35              		.align	2
  36              		.global	io_read_gpio0_port
  38              	io_read_gpio0_port:
  39              	.LFB3:
  40              		.loc 1 27 0
  22:../lib/io_driver.c **** 
  23:../lib/io_driver.c **** // ******************************************************************************
  24:../lib/io_driver.c **** // Read general purpose IO port
  25:../lib/io_driver.c ****    unsigned long io_read_gpio0_port(void)
  26:../lib/io_driver.c **** // ******************************************************************************
  27:../lib/io_driver.c **** {
  41              	etend = 0, frame = 0
  42              		@ frame_needed = 0, uses_anonymous_args = 0
  43              		@ link register save eliminated.
  44              		.loc 1 31 0
  28:../lib/io_driver.c **** //	unsigned long _cmsr = get_cmsr();
  29:../lib/io_driver.c **** //	set_cmsr(_cmsr  | (1<<CMSR_IRQ) | (1<<CMSR_FIQ));
  30:../lib/io_driver.c **** 
  31:../lib/io_driver.c **** 		unsigned long temp = GPIO0_IN;
  45              		r3, #61440
  46 0018 E3E03A0F 		ldr	r0, [r3, #-4091]
  47 001c E5130FFB 	.LVL2:
  48              		.loc 1 27 0
  49              		@ lr needed for prologue
  50              	.LVL3:
  51              		.loc 1 35 0
  32:../lib/io_driver.c **** 
  33:../lib/io_driver.c **** //	set_cmsr(_cmsr);
  34:../lib/io_driver.c **** 	return temp;
  35:../lib/io_driver.c **** }
  52              	, lr
  53 0020 E1A0F00E 	.LFE3:
  55              		.align	2
  56              		.global	io_set_gpio0_pin
  58              	io_set_gpio0_pin:
  59              	.LFB4:
  60              		.loc 1 41 0
  36:../lib/io_driver.c **** 
  37:../lib/io_driver.c **** // ******************************************************************************
  38:../lib/io_driver.c **** // Set general purpose IO port
  39:../lib/io_driver.c ****    void io_set_gpio0_pin(unsigned char pin)
  40:../lib/io_driver.c **** // ******************************************************************************
  41:../lib/io_driver.c **** {
  61              	 0, pretend = 0, frame = 0
  62              		@ frame_needed = 0, uses_anonymous_args = 0
  63              		@ link register save eliminated.
  64              	.LVL4:
  65              		.loc 1 45 0
  42:../lib/io_driver.c **** //	unsigned long _cmsr = get_cmsr();
  43:../lib/io_driver.c **** //	set_cmsr(_cmsr  | (1<<CMSR_IRQ) | (1<<CMSR_FIQ));
  44:../lib/io_driver.c **** 
  45:../lib/io_driver.c **** 		GPIO0_OUT = GPIO0_OUT | (1<<pin);
  66              	r1, #61440
  67 0024 E3E01A0F 		ldr	r3, [r1, #-4095]
  68 0028 E5113FFF 		.loc 1 41 0
  69              		and	r0, r0, #255
  70 002c E20000FF 		.loc 1 45 0
  71              		mov	r2, #1
  72 0030 E3A02001 		orr	r3, r3, r2, asl r0
  73 0034 E1833012 		.loc 1 41 0
  74              		@ lr needed for prologue
  75              		.loc 1 45 0
  76              		str	r3, [r1, #-4095]
  77 0038 E5013FFF 		.loc 1 48 0
  46:../lib/io_driver.c **** 
  47:../lib/io_driver.c **** //	set_cmsr(_cmsr);
  48:../lib/io_driver.c **** }
  78              	.LFE4:
  80              		.align	2
  81              		.global	io_clr_gpio0_pin
  83              	io_clr_gpio0_pin:
  84              	.LFB5:
  85              		.loc 1 54 0
  86              		@ args = 0, pretend = 0, frame = 0
  49:../lib/io_driver.c **** 
  50:../lib/io_driver.c **** // ******************************************************************************
  51:../lib/io_driver.c **** // Clear general purpose IO port
  52:../lib/io_driver.c ****    void io_clr_gpio0_pin(unsigned char pin)
  53:../lib/io_driver.c **** // ******************************************************************************
  54:../lib/io_driver.c **** {
  87              	needed = 0, uses_anonymous_args = 0
  88              		@ link register save eliminated.
  89              	.LVL5:
  90              		and	r0, r0, #255
  91              		.loc 1 58 0
  92 0040 E20000FF 		mov	r2, #1
  55:../lib/io_driver.c **** //	unsigned long _cmsr = get_cmsr();
  56:../lib/io_driver.c **** //	set_cmsr(_cmsr  | (1<<CMSR_IRQ) | (1<<CMSR_FIQ));
  57:../lib/io_driver.c **** 
  58:../lib/io_driver.c **** 		GPIO0_OUT = GPIO0_OUT & ~(1<<pin);
  93              	2, r2, asl r0
  94 0044 E3A02001 		mvn	r1, #61440
  95 0048 E1A02012 		ldr	r3, [r1, #-4095]
  96 004c E3E01A0F 		mvn	r2, r2
  97 0050 E5113FFF 		and	r3, r3, r2
  98 0054 E1E02002 		.loc 1 54 0
  99 0058 E0033002 		@ lr needed for prologue
 100              		.loc 1 58 0
 101              		str	r3, [r1, #-4095]
 102              		.loc 1 61 0
 103 005c E5013FFF 		mov	pc, lr
  59:../lib/io_driver.c **** 
  60:../lib/io_driver.c **** //	set_cmsr(_cmsr);
  61:../lib/io_driver.c **** }
 104              	ze	io_clr_gpio0_pin, .-io_clr_gpio0_pin
 105 0060 E1A0F00E 		.align	2
 106              		.global	io_toggle_gpio0_pin
 108              	io_toggle_gpio0_pin:
 109              	.LFB6:
 110              		.loc 1 66 0
 111              		@ args = 0, pretend = 0, frame = 0
 112              		@ frame_needed = 0, uses_anonymous_args = 0
  62:../lib/io_driver.c **** // ******************************************************************************
  63:../lib/io_driver.c **** // Set general purpose IO port
  64:../lib/io_driver.c ****    void io_toggle_gpio0_pin(unsigned char pin)
  65:../lib/io_driver.c **** // ******************************************************************************
  66:../lib/io_driver.c **** {
 113              	egister save eliminated.
 114              	.LVL6:
 115              		.loc 1 70 0
 116              		mvn	r1, #61440
 117              		ldr	r3, [r1, #-4095]
  67:../lib/io_driver.c **** //	unsigned long _cmsr = get_cmsr();
  68:../lib/io_driver.c **** //	set_cmsr(_cmsr  | (1<<CMSR_IRQ) | (1<<CMSR_FIQ));
  69:../lib/io_driver.c **** 
  70:../lib/io_driver.c **** 		GPIO0_OUT = GPIO0_OUT ^ (1<<pin);
 118              	 1 66 0
 119 0064 E3E01A0F 		and	r0, r0, #255
 120 0068 E5113FFF 		.loc 1 70 0
 121              		mov	r2, #1
 122 006c E20000FF 		eor	r3, r3, r2, asl r0
 123              		.loc 1 66 0
 124 0070 E3A02001 		@ lr needed for prologue
 125 0074 E0233012 		.loc 1 70 0
 126              		str	r3, [r1, #-4095]
 127              		.loc 1 73 0
 128              		mov	pc, lr
 129 0078 E5013FFF 	.LFE6:
  71:../lib/io_driver.c **** 
  72:../lib/io_driver.c **** //	set_cmsr(_cmsr);
  73:../lib/io_driver.c **** }
 130              	ggle_gpio0_pin, .-io_toggle_gpio0_pin
 131 007c E1A0F00E 		.align	2
 132              		.global	io_set_gpio0_port
 134              	io_set_gpio0_port:
 135              	.LFB7:
 136              		.loc 1 79 0
 137              		@ args = 0, pretend = 0, frame = 0
 138              		@ frame_needed = 0, uses_anonymous_args = 0
  74:../lib/io_driver.c **** 
  75:../lib/io_driver.c **** // ******************************************************************************
  76:../lib/io_driver.c **** // Clear general purpose IO port
  77:../lib/io_driver.c ****    void io_set_gpio0_port(unsigned long value)
  78:../lib/io_driver.c **** // ******************************************************************************
  79:../lib/io_driver.c **** {
 139              	egister save eliminated.
 140              	.LVL7:
 141              		.loc 1 83 0
 142              		mvn	r3, #61440
 143              		.loc 1 79 0
  80:../lib/io_driver.c **** //	unsigned long _cmsr = get_cmsr();
  81:../lib/io_driver.c **** //	set_cmsr(_cmsr  | (1<<CMSR_IRQ) | (1<<CMSR_FIQ));
  82:../lib/io_driver.c **** 
  83:../lib/io_driver.c **** 		GPIO0_OUT = value;
 144              	 needed for prologue
 145 0080 E3E03A0F 		.loc 1 83 0
 146              		str	r0, [r3, #-4095]
 147              		.loc 1 86 0
 148              		mov	pc, lr
 149 0084 E5030FFF 	.LFE7:
  84:../lib/io_driver.c **** 
  85:../lib/io_driver.c **** //	set_cmsr(_cmsr);
  86:../lib/io_driver.c **** }
 150              		io_set_gpio0_port, .-io_set_gpio0_port
 151 0088 E1A0F00E 		.align	2
 152              		.global	io_set_pwm
 154              	io_set_pwm:
 155              	.LFB8:
 156              		.loc 1 98 0
 157              		@ args = 0, pretend = 0, frame = 0
 158              		@ frame_needed = 0, uses_anonymous_args = 0
  87:../lib/io_driver.c **** 
  88:../lib/io_driver.c **** 
  89:../lib/io_driver.c **** 
  90:../lib/io_driver.c **** // ################################################################################################
  91:../lib/io_driver.c **** // Pulse-Width-Modulation Controller
  92:../lib/io_driver.c **** // ################################################################################################
  93:../lib/io_driver.c **** 
  94:../lib/io_driver.c **** // ******************************************************************************
  95:../lib/io_driver.c **** // Set pwm value
  96:../lib/io_driver.c ****    void io_set_pwm(unsigned char port, unsigned char data)
  97:../lib/io_driver.c **** // ******************************************************************************
  98:../lib/io_driver.c **** {
 159              	nd	r0, r0, #255
 160              		.loc 1 105 0
 161              		cmp	r0, #7
 162              		.loc 1 98 0
 163 008c E20000FF 		stmfd	sp!, {r4, lr}
  99:../lib/io_driver.c **** //	unsigned long _cmsr = get_cmsr();
 100:../lib/io_driver.c **** //	set_cmsr(_cmsr  | (1<<CMSR_IRQ) | (1<<CMSR_FIQ));
 101:../lib/io_driver.c **** 
 102:../lib/io_driver.c **** 	unsigned long temp = 0;
 103:../lib/io_driver.c **** 
 104:../lib/io_driver.c **** 	// value adjustment
 105:../lib/io_driver.c **** 	if(port > 7)
 164              	0:
 165 0090 E3500007 		.loc 1 105 0
 166              		mov	ip, #0
 167 0094 E92D4010 		mvn	lr, #255
 168              		.loc 1 98 0
 169              		and	r1, r1, #255
 170 0098 E3A0C000 		.loc 1 105 0
 171 009c E3E0E0FF 		bhi	.L16
 172              		.loc 1 117 0
 173 00a0 E20110FF 		sub	r3, r0, #4
 174              		and	r3, r3, #255
 175 00a4 8A000011 		.loc 1 108 0
 106:../lib/io_driver.c **** 		port = 0;
 107:../lib/io_driver.c **** 
 108:../lib/io_driver.c **** 	if(port < 4){
 109:../lib/io_driver.c **** 		temp = PWM0_CONF0; // get working copy
 110:../lib/io_driver.c **** 		temp = temp & ~(0xFF << (port*8)); // clear old value
 111:../lib/io_driver.c **** 		temp = temp | (unsigned long)(data << (port*8)); // insert new value
 112:../lib/io_driver.c **** 		PWM0_CONF0 = temp;
 113:../lib/io_driver.c **** 	}
 114:../lib/io_driver.c **** 	else{
 115:../lib/io_driver.c **** 		port = port-4;
 116:../lib/io_driver.c **** 		temp = PWM0_CONF1; // get working copy
 117:../lib/io_driver.c **** 		temp = temp & ~(0xFF << (port*8)); // clear old value
 176              		.loc 1 117 0
 177 00a8 E2403004 		mov	lr, r3, asl #3
 178 00ac E20330FF 		.loc 1 116 0
 179              		mvn	r4, #61440
 180 00b0 E3500003 		.loc 1 108 0
 181              		mov	ip, r0, asl #3
 182 00b4 E1A0E183 		bls	.L22
 183              		.loc 1 117 0
 184 00b8 E3E04A0F 		mov	r3, #255
 185              		mov	r3, r3, asl lr
 186 00bc E1A0C180 		.loc 1 116 0
 187 00c0 9A000007 		ldr	r2, [r4, #-3979]
 188              	.LVL9:
 189 00c4 E3A030FF 		.loc 1 117 0
 190 00c8 E1A03E13 		mvn	r3, r3
 191              		and	r2, r2, r3
 192 00cc E5142F8B 	.LVL10:
 193              		.loc 1 118 0
 194              		orr	r2, r2, r1, asl lr
 195 00d0 E1E03003 	.LVL11:
 196 00d4 E0022003 		.loc 1 119 0
 197              		str	r2, [r4, #-3979]
 118:../lib/io_driver.c **** 		temp = temp | (unsigned long)(data << (port*8)); // insert new value
 198              	LVL12:
 199 00d8 E1822E11 	.L22:
 200              		.loc 1 108 0
 119:../lib/io_driver.c **** 		PWM0_CONF1 = temp;
 201              	v	r3, #255
 202 00dc E5042F8B 		mov	r3, r3, asl ip
 203 00e0 E8BD8010 		mvn	lr, r3
 204              	.L16:
 205              		.loc 1 109 0
 206              		mvn	r2, #61440
 207 00e4 E3A030FF 		ldr	r3, [r2, #-3983]
 208 00e8 E1A03C13 	.LVL13:
 209 00ec E1E0E003 		.loc 1 110 0
 210              		and	r3, r3, lr
 211              	.LVL14:
 212 00f0 E3E02A0F 		.loc 1 111 0
 213 00f4 E5123F8F 		orr	r3, r3, r1, asl ip
 214              	.LVL15:
 215              		.loc 1 112 0
 216 00f8 E003300E 		str	r3, [r2, #-3983]
 217              		ldmfd	sp!, {r4, pc}
 218              	.LFE8:
 220              		.align	2
 221              		.global	io_get_pwm
 223 0104 E8BD8010 	io_get_pwm:
 224              	.LFB9:
 225              		.loc 1 128 0
 226              		@ args = 0, pretend = 0, frame = 0
 227              		@ frame_needed = 0, uses_anonymous_args = 0
 228              		@ link register save eliminated.
 229              	.LVL16:
 230              		and	r0, r0, #255
 120:../lib/io_driver.c **** 	}
 121:../lib/io_driver.c **** //	set_cmsr(_cmsr);
 122:../lib/io_driver.c **** }
 123:../lib/io_driver.c **** 
 124:../lib/io_driver.c **** // ******************************************************************************
 125:../lib/io_driver.c **** // Set pwm value
 126:../lib/io_driver.c ****    unsigned char io_get_pwm(unsigned char port)
 127:../lib/io_driver.c **** // ******************************************************************************
 128:../lib/io_driver.c **** {
 231              	c 1 128 0
 232              		@ lr needed for prologue
 233              		.loc 1 135 0
 234              		mov	r2, #0
 235              		bhi	.L26
 236 0108 E20000FF 		.loc 1 142 0
 129:../lib/io_driver.c **** //	unsigned long _cmsr = get_cmsr();
 130:../lib/io_driver.c **** //	set_cmsr(_cmsr  | (1<<CMSR_IRQ) | (1<<CMSR_FIQ));
 131:../lib/io_driver.c **** 
 132:../lib/io_driver.c **** 	unsigned long temp = 0;
 133:../lib/io_driver.c **** 
 134:../lib/io_driver.c **** 	// value adjustment
 135:../lib/io_driver.c **** 	if(port > 7)
 237              	3, r0, #4
 238 010c E3500007 		.loc 1 138 0
 239              		cmp	r0, #3
 240              		.loc 1 142 0
 241              		and	r2, r3, #255
 242 0110 E3A02000 		.loc 1 138 0
 243 0114 8A00000A 		bls	.L31
 136:../lib/io_driver.c **** 		port = 0;
 137:../lib/io_driver.c **** 
 138:../lib/io_driver.c **** 	if(port < 4)
 139:../lib/io_driver.c **** 		temp = PWM0_CONF0; // get config register
 140:../lib/io_driver.c **** 	else{
 141:../lib/io_driver.c **** 		port = port-4;
 142:../lib/io_driver.c **** 		temp = PWM0_CONF1; // get config register
 244              	 142 0
 245 0118 E2403004 		mvn	r3, #61440
 246              		ldr	r0, [r3, #-3979]
 247 011c E3500003 	.LVL17:
 248              		mov	r2, r2, asl #3
 249 0120 E20320FF 		mov	r0, r0, lsr r2
 250              	.LVL18:
 251 0124 9A000005 		and	r0, r0, #255
 252              		.loc 1 149 0
 253 0128 E3E03A0F 		mov	pc, lr
 254 012c E5130F8B 	.LVL19:
 255              	.L31:
 256 0130 E1A02182 		.loc 1 138 0
 257 0134 E1A00230 		mov	r2, r0, asl #3
 258              	.L26:
 259 0138 E20000FF 		.loc 1 139 0
 143:../lib/io_driver.c **** 	}
 144:../lib/io_driver.c **** 
 145:../lib/io_driver.c **** 	temp = temp >> (port*8); // only keep designated byte
 146:../lib/io_driver.c **** 
 147:../lib/io_driver.c **** //	set_cmsr(_cmsr);
 148:../lib/io_driver.c **** 	return (unsigned char)temp;
 149:../lib/io_driver.c **** }
 260              		ldr	r0, [r3, #-3983]
 261 013c E1A0F00E 	.LVL20:
 262              		.loc 1 142 0
 263              		mov	r0, r0, lsr r2
 264              	.LVL21:
 265 0140 E1A02180 		and	r0, r0, #255
 266              		.loc 1 149 0
 267              		mov	pc, lr
 268 0144 E3E03A0F 	.LFE9:
 270              		.align	2
 271              		.global	io_uart0_read_byte
 273              	io_uart0_read_byte:
 274 0150 E20000FF 	.LFB10:
 275              		.loc 1 161 0
 276 0154 E1A0F00E 		@ args = 0, pretend = 0, frame = 0
 277              		@ frame_needed = 0, uses_anonymous_args = 0
 278              		@ link register save eliminated.
 279              		.loc 1 166 0
 280              		mvn	r2, #61440
 281              		ldr	r3, [r2, #-3835]
 282              		tst	r3, #2
 283              		mvn	r0, #0
 150:../lib/io_driver.c **** 
 151:../lib/io_driver.c **** 
 152:../lib/io_driver.c **** 
 153:../lib/io_driver.c **** // ################################################################################################
 154:../lib/io_driver.c **** // General Purpose UART "miniUART" (UART_0)
 155:../lib/io_driver.c **** // ################################################################################################
 156:../lib/io_driver.c **** 
 157:../lib/io_driver.c **** // ******************************************************************************
 158:../lib/io_driver.c **** // Read one byte via UART 0
 159:../lib/io_driver.c ****    int io_uart0_read_byte(void)
 160:../lib/io_driver.c **** // ******************************************************************************
 161:../lib/io_driver.c **** {
 284              	drne	r0, [r2, #-3839]
 285              		.loc 1 161 0
 286              		@ lr needed for prologue
 287              	.LVL23:
 162:../lib/io_driver.c **** //	unsigned long _cmsr = get_cmsr();
 163:../lib/io_driver.c **** //	set_cmsr(_cmsr  | (1<<CMSR_IRQ) | (1<<CMSR_FIQ));
 164:../lib/io_driver.c **** 
 165:../lib/io_driver.c **** 	int temp;
 166:../lib/io_driver.c **** 	if ((UART0_SREG & (1<<CUART_RXD)) != 0) // byte available?
 288              	c 1 173 0
 289 0158 E3E02A0F 		mov	pc, lr
 290 015c E5123EFB 	.LFE10:
 292 0164 E3E00000 		.align	2
 293              		.global	io_uart0_send_byte
 167:../lib/io_driver.c **** 		temp = UART0_DATA;
 294              		io_uart0_send_byte, %function
 295 0168 15120EFF 	io_uart0_send_byte:
 296              	.LFB11:
 297              		.loc 1 179 0
 298              		@ args = 0, pretend = 0, frame = 0
 168:../lib/io_driver.c **** 	else
 169:../lib/io_driver.c **** 		temp = -1;
 170:../lib/io_driver.c **** 
 171:../lib/io_driver.c **** //	set_cmsr(_cmsr);
 172:../lib/io_driver.c **** 	return temp;
 173:../lib/io_driver.c **** }
 299              	ame_needed = 0, uses_anonymous_args = 0
 300 016c E1A0F00E 		@ link register save eliminated.
 301              	.LVL24:
 302              		@ lr needed for prologue
 303              		mvn	r2, #61440
 304              	.L39:
 305              		.loc 1 183 0
 306              		ldr	r3, [r2, #-3835]
 307              		tst	r3, #1
 174:../lib/io_driver.c **** 
 175:../lib/io_driver.c **** // ******************************************************************************
 176:../lib/io_driver.c **** // Write one byte via UART 0
 177:../lib/io_driver.c ****    int io_uart0_send_byte(int ch)
 178:../lib/io_driver.c **** // ******************************************************************************
 179:../lib/io_driver.c **** {
 308              	
 309              		.loc 1 184 0
 310              		and	r3, r0, #255
 311              		str	r3, [r2, #-3839]
 312              	.LVL25:
 313              		.loc 1 188 0
 314 0170 E3E02A0F 		mov	pc, lr
 315              	.LFE11:
 180:../lib/io_driver.c **** //	unsigned long _cmsr = get_cmsr();
 181:../lib/io_driver.c **** //	set_cmsr(_cmsr  | (1<<CMSR_IRQ) | (1<<CMSR_FIQ));
 182:../lib/io_driver.c **** 
 183:../lib/io_driver.c **** 	while((UART0_SREG & (1<<CUART_TXB)) == 0); // uart busy?
 316              	io_uart0_send_byte, .-io_uart0_send_byte
 317 0174 E5123EFB 		.align	2
 318 0178 E3130001 		.global	io_spi0_config
 184:../lib/io_driver.c **** 	UART0_DATA = (ch & 0x000000FF);
 320              	pi0_config:
 321 0180 E20030FF 	.LFB12:
 322 0184 E5023EFF 		.loc 1 200 0
 323              		@ args = 0, pretend = 0, frame = 0
 185:../lib/io_driver.c **** 
 186:../lib/io_driver.c **** //	set_cmsr(_cmsr);
 187:../lib/io_driver.c **** 	return ch;
 188:../lib/io_driver.c **** }
 324              	rame_needed = 0, uses_anonymous_args = 0
 325 0188 E1A0F00E 		@ link register save eliminated.
 326              	.LVL26:
 327              		and	r0, r0, #255
 328              		.loc 1 206 0
 329              		cmp	r0, #1
 330              		.loc 1 209 0
 331              		orr	r2, r1, #1024
 332              		.loc 1 207 0
 189:../lib/io_driver.c **** 
 190:../lib/io_driver.c **** 
 191:../lib/io_driver.c **** 
 192:../lib/io_driver.c **** // ################################################################################################
 193:../lib/io_driver.c **** // Serial Peripherial Interface (SPI_CONTROLLER_0)
 194:../lib/io_driver.c **** // ################################################################################################
 195:../lib/io_driver.c **** 
 196:../lib/io_driver.c **** // ******************************************************************************
 197:../lib/io_driver.c **** // Configure SPI 0
 198:../lib/io_driver.c ****    void io_spi0_config(unsigned char auto_cs, unsigned long data_size)
 199:../lib/io_driver.c **** // ******************************************************************************
 200:../lib/io_driver.c **** {
 333              	, #61440
 334              		orr	r1, r1, #9216
 335              	.LVL27:
 336              		.loc 1 209 0
 337              		mvnne	r3, #61440
 338 018c E20000FF 		.loc 1 200 0
 201:../lib/io_driver.c **** //	unsigned long _cmsr = get_cmsr();
 202:../lib/io_driver.c **** //	set_cmsr(_cmsr  | (1<<CMSR_IRQ) | (1<<CMSR_FIQ));
 203:../lib/io_driver.c **** 	// devices update their serial input on a rising edge of sclk,
 204:../lib/io_driver.c **** 	// so we need to update the mosi output of the core before
 205:../lib/io_driver.c **** 	// -> at the falling edge of sclk = set SPI_TX_NEG
 206:../lib/io_driver.c **** 	if(auto_cs == 1)
 339              	needed for prologue
 340 0190 E3500001 		.loc 1 207 0
 207:../lib/io_driver.c **** 		SPI0_CONF = (1<<SPI_ACS) | (1<<SPI_TX_NEG) | data_size; // auto assert cs
 208:../lib/io_driver.c **** 	else
 209:../lib/io_driver.c **** 		SPI0_CONF = (0<<SPI_ACS) | (1<<SPI_TX_NEG) | data_size; // manual assert cs
 341              	treq	r1, [r3, #-3327]
 342 0194 E3812B01 		.loc 1 209 0
 343              		strne	r2, [r3, #-3327]
 344 0198 03E03A0F 		mov	pc, lr
 345 019c E3811B09 	.LFE12:
 347              		.align	2
 348 01a0 13E03A0F 		.global	io_spi0_speed
 350              	io_spi0_speed:
 351              	.LFB13:
 352 01a4 05031CFF 		.loc 1 217 0
 353              		@ args = 0, pretend = 0, frame = 0
 354 01a8 15032CFF 		@ frame_needed = 0, uses_anonymous_args = 0
 355 01ac E1A0F00E 		@ link register save eliminated.
 356              	.LVL28:
 357              		.loc 1 221 0
 358              		mvn	r3, #61440
 359              		.loc 1 217 0
 360              		@ lr needed for prologue
 361              		.loc 1 221 0
 362              		str	r0, [r3, #-3323]
 210:../lib/io_driver.c **** //	set_cmsr(_cmsr);
 211:../lib/io_driver.c **** }
 212:../lib/io_driver.c **** 
 213:../lib/io_driver.c **** // ******************************************************************************
 214:../lib/io_driver.c **** // Configure SPI 0 CLK frequency -> (sys_clk/(spi_clk*2))-1
 215:../lib/io_driver.c ****    void io_spi0_speed(unsigned long clk_divider)
 216:../lib/io_driver.c **** // ******************************************************************************
 217:../lib/io_driver.c **** {
 363              	 lr
 364              	.LFE13:
 366              		.align	2
 367              		.global	io_spi0_trans
 218:../lib/io_driver.c **** //	unsigned long _cmsr = get_cmsr();
 219:../lib/io_driver.c **** //	set_cmsr(_cmsr  | (1<<CMSR_IRQ) | (1<<CMSR_FIQ));
 220:../lib/io_driver.c **** 
 221:../lib/io_driver.c **** 		SPI0_PRSC = clk_divider; // (sys_clk/(spi_clk*2))-1;
 368              	e	io_spi0_trans, %function
 369 01b0 E3E03A0F 	io_spi0_trans:
 370              	.LFB14:
 371              		.loc 1 230 0
 372              		@ args = 0, pretend = 0, frame = 0
 373 01b4 E5030CFB 		@ frame_needed = 0, uses_anonymous_args = 0
 222:../lib/io_driver.c **** 
 223:../lib/io_driver.c **** //	set_cmsr(_cmsr);
 224:../lib/io_driver.c **** }
 374              	k register save eliminated.
 375 01b8 E1A0F00E 	.LVL29:
 376              		@ lr needed for prologue
 377              		mvn	r2, #61440
 378              	.L53:
 379              		.loc 1 235 0
 380              		ldr	r3, [r2, #-3327]
 381              		tst	r3, #256
 382              		bne	.L53
 225:../lib/io_driver.c **** 
 226:../lib/io_driver.c **** // ******************************************************************************
 227:../lib/io_driver.c **** // Sends/receives max 32 bits via SPI, CS and config must be done outside
 228:../lib/io_driver.c ****    unsigned long io_spi0_trans(unsigned long data)
 229:../lib/io_driver.c **** // ******************************************************************************
 230:../lib/io_driver.c **** {
 383              	36 0
 384              		str	r0, [r2, #-3311]
 385              		.loc 1 237 0
 386              		ldr	r3, [r2, #-3327]
 387              		orr	r3, r3, #256
 388              		str	r3, [r2, #-3327]
 389 01bc E3E02A0F 		mvn	r2, #61440
 390              	.L55:
 231:../lib/io_driver.c **** //	unsigned long _cmsr = get_cmsr();
 232:../lib/io_driver.c **** //	set_cmsr(_cmsr  | (1<<CMSR_IRQ) | (1<<CMSR_FIQ));
 233:../lib/io_driver.c **** 
 234:../lib/io_driver.c **** 	// spi transmission
 235:../lib/io_driver.c **** 	while((SPI0_CONF & (1<<SPI_BUSY)) != 0); // wait for prev tx to finish
 391              	238 0
 392 01c0 E5123CFF 		ldr	r3, [r2, #-3327]
 393 01c4 E3130C01 		tst	r3, #256
 394 01c8 1AFFFFFC 		bne	.L55
 236:../lib/io_driver.c **** 	SPI0_DAT0 = data;
 395              	c 1 239 0
 396 01cc E5020CEF 		ldr	r0, [r2, #-3311]
 237:../lib/io_driver.c **** 	SPI0_CONF = SPI0_CONF | (1<<SPI_BUSY); // start transmitter
 397              	VL30:
 398 01d0 E5123CFF 	.LVL31:
 399 01d4 E3833C01 		.loc 1 243 0
 400 01d8 E5023CFF 		mov	pc, lr
 401 01dc E3E02A0F 	.LFE14:
 238:../lib/io_driver.c **** 	while((SPI0_CONF & (1<<SPI_BUSY)) != 0); // wait for rx to finish
 403              	n	2
 404 01e0 E5123CFF 		.global	io_spi0_enable
 406 01e8 1AFFFFFC 	io_spi0_enable:
 239:../lib/io_driver.c **** 	unsigned long temp = SPI0_DAT0;
 407              	15:
 408 01ec E5120CEF 		.loc 1 249 0
 409              		@ args = 0, pretend = 0, frame = 0
 410              		@ frame_needed = 0, uses_anonymous_args = 0
 240:../lib/io_driver.c **** 
 241:../lib/io_driver.c **** //	set_cmsr(_cmsr);
 242:../lib/io_driver.c **** 	return temp;
 243:../lib/io_driver.c **** }
 411              	ink register save eliminated.
 412 01f0 E1A0F00E 	.LVL32:
 413              		.loc 1 253 0
 414              		mvn	r1, #61440
 415              		ldr	r3, [r1, #-3319]
 416              		.loc 1 249 0
 417              		and	r0, r0, #255
 418              		.loc 1 253 0
 419              		mov	r2, #1
 244:../lib/io_driver.c **** 
 245:../lib/io_driver.c **** // ******************************************************************************
 246:../lib/io_driver.c **** // Controls the CS of SPI0, enables a connected CS (turns it LOW)
 247:../lib/io_driver.c ****    void io_spi0_enable(unsigned char device)
 248:../lib/io_driver.c **** // ******************************************************************************
 249:../lib/io_driver.c **** {
 420              	r3, r2, asl r0
 421              		.loc 1 249 0
 422              		@ lr needed for prologue
 423              		.loc 1 253 0
 424              		str	r3, [r1, #-3319]
 250:../lib/io_driver.c **** //	unsigned long _cmsr = get_cmsr();
 251:../lib/io_driver.c **** //	set_cmsr(_cmsr  | (1<<CMSR_IRQ) | (1<<CMSR_FIQ));
 252:../lib/io_driver.c **** 
 253:../lib/io_driver.c **** 		SPI0_SCSR = SPI0_SCSR | (1<<device);
 425              	 1 256 0
 426 01f4 E3E01A0F 		mov	pc, lr
 427 01f8 E5113CF7 	.LFE15:
 429 01fc E20000FF 		.align	2
 430              		.global	io_spi0_disable
 432 0204 E1833012 	io_spi0_disable:
 433              	.LFB16:
 434              		.loc 1 262 0
 435              		@ args = 0, pretend = 0, frame = 0
 436 0208 E5013CF7 		@ frame_needed = 0, uses_anonymous_args = 0
 254:../lib/io_driver.c **** 
 255:../lib/io_driver.c **** //	set_cmsr(_cmsr);
 256:../lib/io_driver.c **** }
 437              	ster save eliminated.
 438 020c E1A0F00E 	.LVL33:
 439              		and	r0, r0, #255
 440              		.loc 1 266 0
 441              		mov	r2, #1
 442              		mov	r2, r2, asl r0
 443              		mvn	r1, #61440
 444              		ldr	r3, [r1, #-3319]
 445              		mvn	r2, r2
 257:../lib/io_driver.c **** 
 258:../lib/io_driver.c **** // ******************************************************************************
 259:../lib/io_driver.c **** // Controls the CS of SPI0, disables a connected CS (turns it HIGH)
 260:../lib/io_driver.c ****    void io_spi0_disable(unsigned char device)
 261:../lib/io_driver.c **** // ******************************************************************************
 262:../lib/io_driver.c **** {
 446              	r3, r2
 447              		.loc 1 262 0
 448              		@ lr needed for prologue
 449              		.loc 1 266 0
 450              		str	r3, [r1, #-3319]
 451 0210 E20000FF 		.loc 1 269 0
 263:../lib/io_driver.c **** //	unsigned long _cmsr = get_cmsr();
 264:../lib/io_driver.c **** //	set_cmsr(_cmsr  | (1<<CMSR_IRQ) | (1<<CMSR_FIQ));
 265:../lib/io_driver.c **** 
 266:../lib/io_driver.c **** 		SPI0_SCSR = SPI0_SCSR & ~(1<<device);
 452              	c, lr
 453 0214 E3A02001 	.LFE16:
 455 021c E3E01A0F 		.align	2
 456 0220 E5113CF7 		.global	io_i2c0_speed
 458 0228 E0033002 	io_i2c0_speed:
 459              	.LFB17:
 460              		.loc 1 282 0
 461              		@ args = 0, pretend = 0, frame = 0
 462 022c E5013CF7 		@ frame_needed = 0, uses_anonymous_args = 0
 267:../lib/io_driver.c **** 
 268:../lib/io_driver.c **** //	set_cmsr(_cmsr);
 269:../lib/io_driver.c **** }
 463              	ister save eliminated.
 464 0230 E1A0F00E 	.LVL34:
 465              		.loc 1 285 0
 466              		mvn	r2, #61440
 467              		ldr	r3, [r2, #-3047]
 468              		.loc 1 287 0
 469              		mov	r1, r0, lsr #8
 470              		.loc 1 285 0
 471              		bic	r3, r3, #128
 270:../lib/io_driver.c **** 
 271:../lib/io_driver.c **** 
 272:../lib/io_driver.c **** 
 273:../lib/io_driver.c **** 
 274:../lib/io_driver.c **** // ################################################################################################
 275:../lib/io_driver.c **** // Inter Intergrated Circuit Interface (I²C_CONTROLLER_0)
 276:../lib/io_driver.c **** // ################################################################################################
 277:../lib/io_driver.c **** 
 278:../lib/io_driver.c **** // ******************************************************************************
 279:../lib/io_driver.c **** // Configure SPI 0 CLK frequency -> (sys_clk/(5*i2c_clock)-1
 280:../lib/io_driver.c ****    void io_i2c0_speed(unsigned long clk_divider)
 281:../lib/io_driver.c **** // ******************************************************************************
 282:../lib/io_driver.c **** {
 472              	[r2, #-3047]
 473              		.loc 1 286 0
 474              		str	r0, [r2, #-3055]
 475              		.loc 1 287 0
 476              		str	r1, [r2, #-3051]
 283:../lib/io_driver.c **** //	unsigned long _cmsr = get_cmsr();
 284:../lib/io_driver.c **** //	set_cmsr(_cmsr  | (1<<CMSR_IRQ) | (1<<CMSR_FIQ));
 285:../lib/io_driver.c **** 		I2C0_CTRL = I2C0_CTRL & ~(1<<I2C_EN); // disable i2c core
 477              	 1 288 0
 478 0234 E3E02A0F 		ldr	r3, [r2, #-3047]
 479 0238 E5123BE7 		orr	r3, r3, #128
 286:../lib/io_driver.c **** 		I2C0_PRLO = clk_divider;
 287:../lib/io_driver.c **** 		I2C0_PRHI = clk_divider >> 8;
 480              	oc 1 282 0
 481 023c E1A01420 		@ lr needed for prologue
 482              		.loc 1 288 0
 483 0240 E3C33080 		str	r3, [r2, #-3047]
 484 0244 E5023BE7 		.loc 1 290 0
 485              		mov	pc, lr
 486 0248 E5020BEF 	.LFE17:
 488 024c E5021BEB 		.align	2
 288:../lib/io_driver.c **** 		I2C0_CTRL = I2C0_CTRL | (1<<I2C_EN); // enable i2c core
 489              	io_i2c0_byte_transfer
 491 0254 E3833080 	io_i2c0_byte_transfer:
 492              	.LFB18:
 493              		.loc 1 300 0
 494              		@ args = 4, pretend = 0, frame = 0
 495 0258 E5023BE7 		@ frame_needed = 0, uses_anonymous_args = 0
 289:../lib/io_driver.c **** //	set_cmsr(_cmsr);
 290:../lib/io_driver.c **** }
 496              	
 497 025c E1A0F00E 		stmfd	sp!, {r4, r5, lr}
 498              	.LCFI1:
 499              		.loc 1 306 0
 500              		mov	ip, #144
 501              		.loc 1 305 0
 502              		and	r4, r1, #254
 503              		mvn	lr, #61440
 504              	.LVL36:
 291:../lib/io_driver.c **** 
 292:../lib/io_driver.c **** // ******************************************************************************
 293:../lib/io_driver.c **** // Read/write byte from/to I²C slave, max 2 address bytes
 294:../lib/io_driver.c ****    int io_i2c0_byte_transfer(unsigned char rw,        // 'r' read / 'w' write cycle
 295:../lib/io_driver.c ****                              unsigned char id,        // device ID
 296:../lib/io_driver.c **** 							 unsigned long data_adr,  // data address
 297:../lib/io_driver.c **** 							 unsigned char adr_bytes, // number of adr bytes
 298:../lib/io_driver.c **** 							 unsigned char data)      // data byte
 299:../lib/io_driver.c **** // ******************************************************************************
 300:../lib/io_driver.c **** {
 505              	300 0
 506              		ldrb	r5, [sp, #15]	@ zero_extendqisi2
 507              		and	r0, r0, #255
 508              		.loc 1 305 0
 509 0260 E92D4030 		str	r4, [lr, #-3043]
 510              		.loc 1 300 0
 301:../lib/io_driver.c **** //	unsigned long _cmsr = get_cmsr();
 302:../lib/io_driver.c **** //	set_cmsr(_cmsr  | (1<<CMSR_IRQ) | (1<<CMSR_FIQ));
 303:../lib/io_driver.c **** 
 304:../lib/io_driver.c **** 	// transfer slave identification address
 305:../lib/io_driver.c **** 	I2C0_DATA = id & 0xFE;                  // device id and write
 306:../lib/io_driver.c **** 	I2C0_CMD = (1<<I2C_STA) | (1<<I2C_WR);  // start condition and write cycle
 511              	1, r1, #255
 512 0264 E3A0C090 		.loc 1 306 0
 513              		str	ip, [lr, #-3071]
 514 0268 E20140FE 		.loc 1 300 0
 515 026c E3E0EA0F 		mov	r4, r2
 516              		and	ip, r3, #255
 517              	.LVL37:
 518 0270 E5DD500F 	.L69:
 519 0274 E20000FF 		.loc 1 307 0
 520              		ldr	r3, [lr, #-3071]
 521 0278 E50E4BE3 		tst	r3, #2
 522              		bne	.L69
 523 027c E20110FF 		.loc 1 308 0
 524              		ldr	r3, [lr, #-3071]
 525 0280 E50ECBFF 		tst	r3, #128
 526              		mvnne	r0, #0
 527 0284 E1A04002 	.LVL38:
 528 0288 E203C0FF 		ldmnefd	sp!, {r4, r5, pc}
 529              	.L80:
 530              		.loc 1 314 0
 307:../lib/io_driver.c **** 	while((I2C0_STAT & (1<<I2C_TIP)) != 0); // wait for transfer to finish
 531              	09
 532 028c E51E3BFF 		.loc 1 315 0
 533 0290 E3130002 		sub	r3, ip, #1
 534 0294 1AFFFFFC 		and	ip, r3, #255
 308:../lib/io_driver.c **** 	if((I2C0_STAT & (1<<I2C_RXACK)) != 0){  // ack received?
 535              	c 1 316 0
 536 0298 E51E3BFF 		cmp	ip, #1
 537 029c E3130080 		.loc 1 317 0
 538 02a0 13E00000 		moveq	r2, r4, lsr #8
 539              		mvneq	r3, #61440
 540 02a4 18BD8030 		.loc 1 319 0
 541              		mvnne	r3, #61440
 309:../lib/io_driver.c **** //		set_cmsr(_cmsr);
 310:../lib/io_driver.c **** 		return -1;
 311:../lib/io_driver.c **** 	}
 312:../lib/io_driver.c **** 
 313:../lib/io_driver.c **** 	// transfer data address
 314:../lib/io_driver.c **** 	while(adr_bytes != 0){
 542              	 317 0
 543 02a8 E35C0000 		streq	r2, [r3, #-3043]
 544 02ac 0A000012 		.loc 1 319 0
 315:../lib/io_driver.c **** 		adr_bytes--;
 545              	rne	r4, [r3, #-3043]
 546 02b0 E24C3001 		.loc 1 320 0
 547 02b4 E203C0FF 		mvn	r2, #61440
 316:../lib/io_driver.c **** 		if(adr_bytes == 1)
 548              	v	r3, #16
 549 02b8 E35C0001 		str	r3, [r2, #-3071]
 317:../lib/io_driver.c **** 			I2C0_DATA = data_adr >> 8;          // high byte
 550              	78:
 551 02bc 01A02424 		.loc 1 321 0
 552 02c0 03E03A0F 		ldr	r3, [r2, #-3071]
 318:../lib/io_driver.c **** 		else
 319:../lib/io_driver.c **** 			I2C0_DATA = data_adr;               // low byte
 553              	t	r3, #2
 554 02c4 13E03A0F 		bne	.L78
 555              		.loc 1 322 0
 556 02c8 05032BE3 		ldr	r3, [r2, #-3071]
 557              		tst	r3, #128
 558 02cc 15034BE3 		beq	.L80
 320:../lib/io_driver.c **** 		I2C0_CMD = (1<<I2C_WR);                 // write cycle
 559              	0, #1
 560 02d0 E3E02A0F 		ldmfd	sp!, {r4, r5, pc}
 561 02d4 E3A03010 	.LVL39:
 562 02d8 E5023BFF 	.L109:
 563              	.LVL40:
 321:../lib/io_driver.c **** 		while((I2C0_STAT & (1<<I2C_TIP)) != 0); // wait for transfer to finish
 564              	 1 328 0
 565 02dc E5123BFF 		cmp	r0, #119
 566 02e0 E3130002 		bne	.L83
 567 02e4 1AFFFFFC 		.loc 1 330 0
 322:../lib/io_driver.c **** 		if((I2C0_STAT & (1<<I2C_RXACK)) != 0){  // ack received?
 568              		r3, #61440
 569 02e8 E5123BFF 		.loc 1 331 0
 570 02ec E3130080 		mov	r2, #80
 571 02f0 0AFFFFEC 		.loc 1 330 0
 572 02f4 E3E00001 		str	r5, [r3, #-3043]
 573 02f8 E8BD8030 		.loc 1 331 0
 574              		str	r2, [r3, #-3071]
 575              		mov	r2, r3
 576              	.L85:
 323:../lib/io_driver.c **** //			set_cmsr(_cmsr);
 324:../lib/io_driver.c **** 			return -2;
 325:../lib/io_driver.c **** 		}
 326:../lib/io_driver.c **** 	}
 327:../lib/io_driver.c **** 
 328:../lib/io_driver.c **** 	if(rw == 'w'){
 577              	32 0
 578 02fc E3500077 		ldr	r3, [r2, #-3071]
 579 0300 1A00000C 		tst	r3, #2
 329:../lib/io_driver.c **** 		// write adressed byte
 330:../lib/io_driver.c **** 		I2C0_DATA = data;                       // send data
 580              	e	.L85
 581 0304 E3E03A0F 		.loc 1 333 0
 331:../lib/io_driver.c **** 		I2C0_CMD = (1<<I2C_STO) | (1<<I2C_WR);  // stop condition and write cycle
 582              	dr	r3, [r2, #-3071]
 583 0308 E3A02050 		ands	r0, r3, #128
 584              	.LVL41:
 585 030c E5035BE3 		ldmeqfd	sp!, {r4, r5, pc}
 586              	.L87:
 587 0310 E5032BFF 		.loc 1 355 0
 588 0314 E1A02003 		mvn	r0, #2
 589              		.loc 1 360 0
 332:../lib/io_driver.c **** 		while((I2C0_STAT & (1<<I2C_TIP)) != 0); // wait for transfer to finish
 590              	p!, {r4, r5, pc}
 591 0318 E5123BFF 	.LVL42:
 592 031c E3130002 	.L83:
 593 0320 1AFFFFFC 		.loc 1 343 0
 333:../lib/io_driver.c **** 		if((I2C0_STAT & (1<<I2C_RXACK)) != 0){  // ack received?
 594              		r0, #114
 595 0324 E5123BFF 		mvnne	r0, #3
 596 0328 E2130080 	.LVL43:
 597              		ldmnefd	sp!, {r4, r5, pc}
 598 032c 08BD8030 		.loc 1 345 0
 599              		orr	r3, r1, #1
 334:../lib/io_driver.c **** //			set_cmsr(_cmsr);
 335:../lib/io_driver.c **** 			return -3;
 336:../lib/io_driver.c **** 		}
 337:../lib/io_driver.c **** 		else{
 338:../lib/io_driver.c **** //			set_cmsr(_cmsr);
 339:../lib/io_driver.c **** 			return 0;
 340:../lib/io_driver.c **** 		}
 341:../lib/io_driver.c **** 	}
 342:../lib/io_driver.c **** 
 343:../lib/io_driver.c **** 	if(rw == 'r'){
 344:../lib/io_driver.c **** 		// re-send control byte - this time with read-bit
 345:../lib/io_driver.c **** 		I2C0_DATA = id | 0x01;                  // device id and READ
 346:../lib/io_driver.c **** 		I2C0_CMD = (1<<I2C_STA) | (1<<I2C_WR);  // start condition and write cycle
 347:../lib/io_driver.c **** 		while((I2C0_STAT & (1<<I2C_TIP)) != 0); // wait for transfer to finish
 348:../lib/io_driver.c **** 		if((I2C0_STAT & (1<<I2C_RXACK)) != 0){  // ack received?
 349:../lib/io_driver.c **** //			set_cmsr(_cmsr);
 350:../lib/io_driver.c **** 			return -3;
 351:../lib/io_driver.c **** 		}
 352:../lib/io_driver.c **** 		// read adressed byte
 353:../lib/io_driver.c **** 		I2C0_CMD = (1<<I2C_STO) | (1<<I2C_RD) | (1<<I2C_ACK);
 354:../lib/io_driver.c **** 		while((I2C0_STAT & (1<<I2C_TIP)) != 0); // wait for transfer to finish
 355:../lib/io_driver.c **** 		return I2C0_DATA;
 600              	2, #61440
 601 0330 E3E00002 		.loc 1 346 0
 356:../lib/io_driver.c **** 	}
 357:../lib/io_driver.c **** 
 358:../lib/io_driver.c **** //	set_cmsr(_cmsr);
 359:../lib/io_driver.c **** 	return -4;
 360:../lib/io_driver.c **** }
 602              	ov	r1, #144
 603 0334 E8BD8030 	.LVL44:
 604              		.loc 1 345 0
 605              		str	r3, [r2, #-3043]
 606              		.loc 1 346 0
 607 0338 E3500072 		str	r1, [r2, #-3071]
 608 033c 13E00003 	.L91:
 609              		.loc 1 347 0
 610 0340 18BD8030 		ldr	r3, [r2, #-3071]
 611              		tst	r3, #2
 612 0344 E3813001 		bne	.L91
 613 0348 E3E02A0F 		.loc 1 348 0
 614              		ldr	r3, [r2, #-3071]
 615 034c E3A01090 		tst	r3, #128
 616              		bne	.L87
 617              		.loc 1 353 0
 618 0350 E5023BE3 		mov	r3, #104
 619              		str	r3, [r2, #-3071]
 620 0354 E5021BFF 		mvn	r0, #61440
 621              	.L94:
 622              		.loc 1 354 0
 623 0358 E5123BFF 		ldr	r3, [r0, #-3071]
 624 035c E3130002 		tst	r3, #2
 625 0360 1AFFFFFC 		bne	.L94
 626              		.loc 1 355 0
 627 0364 E5123BFF 		ldr	r0, [r0, #-3043]
 628 0368 E3130080 		ldmfd	sp!, {r4, r5, pc}
 629 036c 1AFFFFEF 	.LFE18:
 631 0370 E3A03068 		.align	2
 632 0374 E5023BFF 		.global	get_syscpreg
 634              	get_syscpreg:
 635              	.LFB19:
 636 037c E5103BFF 		.loc 1 373 0
 637 0380 E3130002 		@ args = 0, pretend = 0, frame = 0
 638 0384 1AFFFFFC 		@ frame_needed = 0, uses_anonymous_args = 0
 639              		@ link register save eliminated.
 640 0388 E5100BE3 	.LVL45:
 641 038c E8BD8030 		and	r0, r0, #255
 642              		@ lr needed for prologue
 643              		.loc 1 375 0
 644              		cmp	r0, #15
 645              		ldrls	pc, [pc, r0, asl #2]
 646              		b	.L111
 647              		.p2align 2
 648              	.L128:
 361:../lib/io_driver.c **** 
 362:../lib/io_driver.c **** 
 363:../lib/io_driver.c **** 
 364:../lib/io_driver.c **** 
 365:../lib/io_driver.c **** // ################################################################################################
 366:../lib/io_driver.c **** // System
 367:../lib/io_driver.c **** // ################################################################################################
 368:../lib/io_driver.c **** 
 369:../lib/io_driver.c **** // ******************************************************************************
 370:../lib/io_driver.c **** // read system coprocessor register x
 371:../lib/io_driver.c ****    unsigned long get_syscpreg(unsigned char index)
 372:../lib/io_driver.c **** // ******************************************************************************
 373:../lib/io_driver.c **** {
 649              	L115
 650              		.word	.L116
 651              		.word	.L117
 652              		.word	.L118
 653              		.word	.L119
 654 0390 E20000FF 		.word	.L120
 655              		.word	.L121
 374:../lib/io_driver.c **** 	unsigned long _cp_val;
 375:../lib/io_driver.c **** 	switch(index){
 656              	.L122
 657 0394 E350000F 		.word	.L123
 658 0398 979FF100 		.word	.L124
 659 039c EA00000F 		.word	.L125
 660              		.word	.L126
 661              		.word	.L127
 662 03a0 00000460 	.L111:
 663 03a4 00000458 		mov	r0, #0
 664 03a8 00000450 	.LVL46:
 665 03ac 00000448 		mov	pc, lr
 666 03b0 00000440 	.LVL47:
 667 03b4 00000438 	.L127:
 668 03b8 00000430 		.loc 1 391 0
 669 03bc 00000428 		mrc p15,0,r0,c15,c15
 670 03c0 00000420 	.LVL48:
 671 03c4 00000418 	.LVL49:
 672 03c8 00000410 		.loc 1 395 0
 673 03cc 00000408 		mov	pc, lr
 674 03d0 00000400 	.LVL50:
 675 03d4 000003F8 	.L126:
 676 03d8 000003F0 		.loc 1 390 0
 677 03dc 000003E8 		mrc p15,0,r0,c14,c14
 678              	.LVL51:
 679 03e0 E3A00000 		mov	pc, lr
 680              	.LVL52:
 681 03e4 E1A0F00E 	.L125:
 682              		.loc 1 389 0
 683              		mrc p15,0,r0,c13,c13
 376:../lib/io_driver.c **** 		case ID_REG_0:   asm volatile ("mrc p15,0,%0, c0, c0" : "=r" (_cp_val) : /* no inputs */  ); brea
 377:../lib/io_driver.c **** 		case ID_REG_1:   asm volatile ("mrc p15,0,%0, c1, c1" : "=r" (_cp_val) : /* no inputs */  ); brea
 378:../lib/io_driver.c **** 		case ID_REG_2:   asm volatile ("mrc p15,0,%0, c2, c2" : "=r" (_cp_val) : /* no inputs */  ); brea
 379:../lib/io_driver.c **** 		case 3:          asm volatile ("mrc p15,0,%0, c3, c3" : "=r" (_cp_val) : /* no inputs */  ); brea
 380:../lib/io_driver.c **** 		case 4:          asm volatile ("mrc p15,0,%0, c4, c4" : "=r" (_cp_val) : /* no inputs */  ); brea
 381:../lib/io_driver.c **** 		case 5:          asm volatile ("mrc p15,0,%0, c5, c5" : "=r" (_cp_val) : /* no inputs */  ); brea
 382:../lib/io_driver.c **** 		case SYS_CTRL_0: asm volatile ("mrc p15,0,%0, c6, c6" : "=r" (_cp_val) : /* no inputs */  ); brea
 383:../lib/io_driver.c **** 		case 7:          asm volatile ("mrc p15,0,%0, c7, c7" : "=r" (_cp_val) : /* no inputs */  ); brea
 384:../lib/io_driver.c **** 		case CSTAT:      asm volatile ("mrc p15,0,%0, c8, c8" : "=r" (_cp_val) : /* no inputs */  ); brea
 385:../lib/io_driver.c **** 		case ADR_FB:     asm volatile ("mrc p15,0,%0, c9, c9" : "=r" (_cp_val) : /* no inputs */  ); brea
 386:../lib/io_driver.c **** 		case 10:         asm volatile ("mrc p15,0,%0,c10,c10" : "=r" (_cp_val) : /* no inputs */  ); brea
 387:../lib/io_driver.c **** 		case LFSR_POLY:  asm volatile ("mrc p15,0,%0,c11,c11" : "=r" (_cp_val) : /* no inputs */  ); brea
 388:../lib/io_driver.c **** 		case LFSR_DATA:  asm volatile ("mrc p15,0,%0,c12,c12" : "=r" (_cp_val) : /* no inputs */  ); brea
 389:../lib/io_driver.c **** 		case SYS_IO:     asm volatile ("mrc p15,0,%0,c13,c13" : "=r" (_cp_val) : /* no inputs */  ); brea
 390:../lib/io_driver.c **** 		case 14:         asm volatile ("mrc p15,0,%0,c14,c14" : "=r" (_cp_val) : /* no inputs */  ); brea
 391:../lib/io_driver.c **** 		case 15:         asm volatile ("mrc p15,0,%0,c15,c15" : "=r" (_cp_val) : /* no inputs */  ); brea
 684              	.L124:
 685 03e8 EE1F0F1F 		.loc 1 388 0
 686              		mrc p15,0,r0,c12,c12
 687              	.LVL55:
 392:../lib/io_driver.c **** 		default:         _cp_val = 0; break;
 393:../lib/io_driver.c **** 	}
 394:../lib/io_driver.c **** 	return _cp_val;
 395:../lib/io_driver.c **** }
 688              		pc, lr
 689 03ec E1A0F00E 	.LVL56:
 690              	.L123:
 691              		.loc 1 387 0
 692              		mrc p15,0,r0,c11,c11
 693 03f0 EE1E0F1E 	.LVL57:
 694              		mov	pc, lr
 695 03f4 E1A0F00E 	.LVL58:
 696              	.L122:
 697              		.loc 1 386 0
 698              		mrc p15,0,r0,c10,c10
 699 03f8 EE1D0F1D 	.LVL59:
 700              		mov	pc, lr
 701 03fc E1A0F00E 	.LVL60:
 702              	.L121:
 703              		.loc 1 385 0
 704              		mrc p15,0,r0, c9, c9
 705 0400 EE1C0F1C 	.LVL61:
 706              		mov	pc, lr
 707 0404 E1A0F00E 	.LVL62:
 708              	.L120:
 709              		.loc 1 384 0
 710              		mrc p15,0,r0, c8, c8
 711 0408 EE1B0F1B 	.LVL63:
 712              		mov	pc, lr
 713 040c E1A0F00E 	.LVL64:
 714              	.L119:
 715              		.loc 1 383 0
 716              		mrc p15,0,r0, c7, c7
 717 0410 EE1A0F1A 	.LVL65:
 718              		mov	pc, lr
 719 0414 E1A0F00E 	.LVL66:
 720              	.L118:
 721              		.loc 1 382 0
 722              		mrc p15,0,r0, c6, c6
 723 0418 EE190F19 	.LVL67:
 724              		mov	pc, lr
 725 041c E1A0F00E 	.LVL68:
 726              	.L117:
 727              		.loc 1 381 0
 728              		mrc p15,0,r0, c5, c5
 729 0420 EE180F18 	.LVL69:
 730              		mov	pc, lr
 731 0424 E1A0F00E 	.LVL70:
 732              	.L116:
 733              		.loc 1 380 0
 734              		mrc p15,0,r0, c4, c4
 735 0428 EE170F17 	.LVL71:
 736              		mov	pc, lr
 737 042c E1A0F00E 	.LVL72:
 738              	.L115:
 739              		.loc 1 379 0
 740              		mrc p15,0,r0, c3, c3
 741 0430 EE160F16 	.LVL73:
 742              		mov	pc, lr
 743 0434 E1A0F00E 	.LVL74:
 744              	.L114:
 745              		.loc 1 378 0
 746              		mrc p15,0,r0, c2, c2
 747 0438 EE150F15 	.LVL75:
 748              		mov	pc, lr
 749 043c E1A0F00E 	.LVL76:
 750              	.L113:
 751              		.loc 1 377 0
 752              		mrc p15,0,r0, c1, c1
 753 0440 EE140F14 	.LVL77:
 754              		mov	pc, lr
 755 0444 E1A0F00E 	.LVL78:
 756              	.L112:
 757              		.loc 1 376 0
 758              		mrc p15,0,r0, c0, c0
 759 0448 EE130F13 	.LVL79:
 760              		mov	pc, lr
 761 044c E1A0F00E 	.LFE19:
 763              		.align	2
 764              		.global	set_syscpreg
 766              	set_syscpreg:
 767 0454 E1A0F00E 	.LFB20:
 768              		.loc 1 401 0
 769              		@ args = 0, pretend = 0, frame = 0
 770              		@ frame_needed = 0, uses_anonymous_args = 0
 771 0458 EE110F11 		@ link register save eliminated.
 772              	.LVL80:
 773 045c E1A0F00E 		and	r1, r1, #255
 774              		.loc 1 402 0
 775              		sub	r1, r1, #6
 776              	.LVL81:
 777 0460 EE100F10 		.loc 1 401 0
 778              		@ lr needed for prologue
 779 0464 E1A0F00E 		.loc 1 402 0
 780              		cmp	r1, #7
 781              		ldrls	pc, [pc, r1, asl #2]
 782              		b	.L138
 783              		.p2align 2
 784              	.L137:
 785              		.word	.L133
 786              		.word	.L138
 396:../lib/io_driver.c **** 
 397:../lib/io_driver.c **** // ******************************************************************************
 398:../lib/io_driver.c **** // write system coprocessor register x
 399:../lib/io_driver.c ****    void set_syscpreg(unsigned long _cp_val, unsigned char index)
 400:../lib/io_driver.c **** // ******************************************************************************
 401:../lib/io_driver.c **** {
 787              		mcr p15,0,r0,c13,c13,0
 788              	.L138:
 789              		mov	pc, lr
 790              	.L133:
 791              		.loc 1 409 0
 792 0468 E20110FF 		mcr p15,0,r0, c6, c6,0
 402:../lib/io_driver.c **** 	switch(index){
 793              	c, lr
 794 046c E2411006 	.L134:
 795              		.loc 1 414 0
 796              		mcr p15,0,r0,c11,c11,0
 797              		mov	pc, lr
 798              	.L135:
 799 0470 E3510007 		.loc 1 415 0
 800 0474 979FF101 		mcr p15,0,r0,c12,c12,0
 801 0478 EA000008 		mov	pc, lr
 802              	.LFE20:
 804 047c 000004A4 		.align	2
 805 0480 000004A0 		.global	uart0_printf
 807 0488 000004A0 	uart0_printf:
 808 048c 000004A0 	.LFB25:
 809 0490 000004AC 		.file 2 "../lib/uart.c"
 810 0494 000004B4 		.loc 2 7 0
 811 0498 0000049C 		@ args = 0, pretend = 0, frame = 0
 812              		@ frame_needed = 0, uses_anonymous_args = 0
 403:../lib/io_driver.c **** //		case ID_REG_0:   asm volatile ("mcr p15,0,%0, c0, c0,0" : /* no outputs */ : "r" (_cp_val)); br
 404:../lib/io_driver.c **** //		case ID_REG_1:   asm volatile ("mcr p15,0,%0, c1, c1,0" : /* no outputs */ : "r" (_cp_val)); br
 405:../lib/io_driver.c **** //		case ID_REG_2:   asm volatile ("mcr p15,0,%0, c2, c2,0" : /* no outputs */ : "r" (_cp_val)); br
 406:../lib/io_driver.c **** //		case 3:          asm volatile ("mcr p15,0,%0, c3, c3,0" : /* no outputs */ : "r" (_cp_val)); br
 407:../lib/io_driver.c **** //		case 4:          asm volatile ("mcr p15,0,%0, c4, c4,0" : /* no outputs */ : "r" (_cp_val)); br
 408:../lib/io_driver.c **** //		case 5:          asm volatile ("mcr p15,0,%0, c5, c5,0" : /* no outputs */ : "r" (_cp_val)); br
 409:../lib/io_driver.c **** 		case SYS_CTRL_0: asm volatile ("mcr p15,0,%0, c6, c6,0" : /* no outputs */ : "r" (_cp_val)); brea
 410:../lib/io_driver.c **** //		case 7:          asm volatile ("mcr p15,0,%0, c7, c7,0" : /* no outputs */ : "r" (_cp_val)); br
 411:../lib/io_driver.c **** //		case CSTAT:      asm volatile ("mcr p15,0,%0, c8, c8,0" : /* no outputs */ : "r" (_cp_val)); br
 412:../lib/io_driver.c **** //		case ADR_FB:     asm volatile ("mcr p15,0,%0, c9, c9,0" : /* no outputs */ : "r" (_cp_val)); br
 413:../lib/io_driver.c **** //		case 10:         asm volatile ("mcr p15,0,%0,c10,c10,0" : /* no outputs */ : "r" (_cp_val)); br
 414:../lib/io_driver.c **** 		case LFSR_POLY:  asm volatile ("mcr p15,0,%0,c11,c11,0" : /* no outputs */ : "r" (_cp_val)); brea
 415:../lib/io_driver.c **** 		case LFSR_DATA:  asm volatile ("mcr p15,0,%0,c12,c12,0" : /* no outputs */ : "r" (_cp_val)); brea
 416:../lib/io_driver.c **** 		case SYS_IO:     asm volatile ("mcr p15,0,%0,c13,c13,0" : /* no outputs */ : "r" (_cp_val)); brea
 813              	{r4, lr}
 814 049c EE0D0F1D 	.LCFI2:
 815              		.loc 2 7 0
 816 04a0 E1A0F00E 		mov	r4, r0
 817              		.loc 2 10 0
 818              		ldrb	r0, [r0, #0]	@ zero_extendqisi2
 819 04a4 EE060F16 	.LVL83:
 820 04a8 E1A0F00E 		cmp	r0, #0
 821              		bne	.L144
 822              		b	.L140
 823 04ac EE0B0F1B 	.LVL84:
 824 04b0 E1A0F00E 	.L146:
 825              		ldrb	r0, [r4, #1]!	@ zero_extendqisi2
 826              	.LVL85:
 827 04b4 EE0C0F1C 		cmp	r0, #0
 828 04b8 E1A0F00E 		beq	.L140
 829              	.L144:
 830              		.loc 2 11 0
 831              		bl	io_uart0_send_byte
 832              	.LVL86:
 833              		cmp	r0, #0
 834              		bgt	.L146
 835              	.LVL87:
 836              	.L140:
   1:../lib/uart.c **** #include "uart.h"
   2:../lib/uart.c **** 
   3:../lib/uart.c **** // ############################################################################################
   4:../lib/uart.c **** // Print text string via UART 0
   5:../lib/uart.c ****    const char *uart0_printf(const char *string)
   6:../lib/uart.c **** // ############################################################################################
   7:../lib/uart.c **** {
 837              	
 838              	.LVL88:
 839              		ldmfd	sp!, {r4, pc}
 840              	.LFE25:
 842              		.section	.rodata
 843              		.align	2
 844 04c0 E1A04000 	.LC0:
   8:../lib/uart.c **** 	char ch;
   9:../lib/uart.c **** 
  10:../lib/uart.c **** 	while ((ch = *string)){
 845              		"\000\000"
 846 04c4 E5D00000 		.text
 847              		.align	2
 848 04c8 E3500000 		.global	uart0_scanf
 850 04d0 EA000005 	uart0_scanf:
 851              	.LFB26:
 852              		.loc 2 22 0
 853 04d4 E5F40001 		@ args = 0, pretend = 0, frame = 0
 854              		@ frame_needed = 0, uses_anonymous_args = 0
 855 04d8 E3500000 	.LVL89:
 856 04dc 0A000002 		stmfd	sp!, {r4, r5, r6, lr}
 857              	.LCFI3:
  11:../lib/uart.c **** 		if (io_uart0_send_byte(ch)<=0)
 858              		subs	r4, r1, #0
 859 04e0 EBFFFFFE 		.loc 2 22 0
 860              		mov	r5, r0
 861 04e4 E3500000 		and	r6, r2, #255
 862 04e8 CAFFFFF9 		.loc 2 25 0
 863              		ble	.L148
 864              	.LVL90:
  12:../lib/uart.c **** 			break;
  13:../lib/uart.c **** 		string++;
  14:../lib/uart.c **** 	}
  15:../lib/uart.c **** 	return string;
  16:../lib/uart.c **** }
 865              		.loc 2 26 0
 866 04ec E1A00004 		bl	io_uart0_read_byte
 867              	.LVL91:
 868 04f0 E8BD8010 	.LVL92:
 869              		.loc 2 27 0
 870              		cmn	r0, #1
 871              		.loc 2 28 0
 872              		and	r3, r0, #255
 873              	.LVL93:
 874 0000 0000     		.loc 2 27 0
 875 0002 0000     		beq	.L150
 876              		.loc 2 30 0
 877              		cmp	r6, #1
 878              	.LVL94:
 879              		.loc 2 29 0
 880              		strb	r3, [r5, #0]
  17:../lib/uart.c **** 
  18:../lib/uart.c **** // ############################################################################################
  19:../lib/uart.c **** // Read text string via UART 0
  20:../lib/uart.c ****    void uart0_scanf(unsigned char *buffer, int length, unsigned char en_echo)
  21:../lib/uart.c **** // ############################################################################################
  22:../lib/uart.c **** {
 881              	31 0
 882              		mov	r0, r3
 883              	.LVL96:
 884              		.loc 2 29 0
 885 04f4 E92D4070 		add	r5, r5, #1
 886              		.loc 2 30 0
  23:../lib/uart.c **** 	int temp = 0;
  24:../lib/uart.c **** 
  25:../lib/uart.c **** 	while(length > 0){
 887              	L157
 888 04f8 E2514000 	.LVL97:
 889              	.L152:
 890 04fc E1A05000 		.loc 2 32 0
 891 0500 E20260FF 		sub	r4, r4, #1
 892              	.LVL98:
 893 0504 DA00000B 	.L150:
 894              		.loc 2 25 0
 895              		cmp	r4, #0
  26:../lib/uart.c **** 		temp = io_uart0_read_byte();
 896              	5
 897 0508 EBFFFFFE 	.LVL99:
 898              	.L148:
 899              		.loc 2 35 0
  27:../lib/uart.c **** 		if(temp != -1){
 900              		r3, .L158
 901 050c E3700001 	.LVL100:
  28:../lib/uart.c **** 			temp = (unsigned char)(temp & 0x000000FF);
 902              	trb	r3, [r5, #0]
 903 0510 E20030FF 		.loc 2 36 0
 904              		ldmfd	sp!, {r4, r5, r6, pc}
 905              	.LVL101:
 906 0514 0A000005 	.L157:
  29:../lib/uart.c **** 			*buffer++ = temp;
  30:../lib/uart.c **** 			if(en_echo == 1)
 907              	 2 31 0
 908 0518 E3560001 		bl	io_uart0_send_byte
 909              	.LVL102:
 910              		b	.L152
 911 051c E5C53000 	.L159:
 912              		.align	2
  31:../lib/uart.c **** 				io_uart0_send_byte(temp); // echo
 913              	
 914 0520 E1A00003 		.word	.LC0
 915              	.LFE26:
 917 0524 E2855001 		.align	2
 918              		.global	uart0_print_buffer
 920              	uart0_print_buffer:
 921              	.LFB27:
  32:../lib/uart.c **** 			length--;
 922              	42 0
 923 052c E2444001 		@ args = 0, pretend = 0, frame = 0
 924              		@ frame_needed = 0, uses_anonymous_args = 0
 925              	.LVL103:
 926              		stmfd	sp!, {r4, r5, lr}
 927 0530 E3540000 	.LCFI4:
 928 0534 CAFFFFF3 		.loc 2 44 0
 929              		subs	r4, r1, #0
 930              		.loc 2 42 0
  33:../lib/uart.c **** 		}
  34:../lib/uart.c **** 	}
  35:../lib/uart.c **** 	*buffer="\0";
 931              	r0
 932 0538 E59F300C 		.loc 2 44 0
 933              		ldmlefd	sp!, {r4, r5, pc}
 934 053c E5C53000 	.LVL104:
  36:../lib/uart.c **** }
 935              	4:
 936 0540 E8BD8070 		.loc 2 46 0
 937              		ldrb	r0, [r5], #1	@ zero_extendqisi2
 938              	.LVL105:
 939              		bl	io_uart0_send_byte
 940 0544 EBFFFFFE 	.LVL106:
 941              		.loc 2 44 0
 942 0548 EAFFFFF7 		subs	r4, r4, #1
 943              		bne	.L164
 944              		ldmfd	sp!, {r4, r5, pc}
 945              	.LFE27:
 947              		.align	2
 948              		.global	long_to_hex_string
 950              	long_to_hex_string:
 951              	.LFB28:
 952              		.file 3 "../lib/utilities.c"
 953              		.loc 3 9 0
  37:../lib/uart.c **** 
  38:../lib/uart.c **** // ############################################################################################
  39:../lib/uart.c **** // Print character buffer via UART 0
  40:../lib/uart.c ****    void uart0_print_buffer(unsigned char *buffer, int size)
  41:../lib/uart.c **** // ############################################################################################
  42:../lib/uart.c **** {
 954              	d = 0, frame = 0
 955              		@ frame_needed = 0, uses_anonymous_args = 0
 956              	.LVL107:
 957              		stmfd	sp!, {r4, lr}
 958 0550 E92D4030 	.LCFI5:
 959              		.loc 3 9 0
  43:../lib/uart.c **** 	unsigned char char_buffer = 0;
  44:../lib/uart.c **** 	while(size > 0){
 960              	4, r2, #255
 961 0554 E2514000 		.loc 3 14 0
 962              		cmp	r4, #8
 963 0558 E1A05000 		movhi	r4, #8
 964              		bhi	.L169
 965 055c D8BD8030 	.LVL108:
 966              		.loc 3 16 0
 967              		cmp	r4, #0
  45:../lib/uart.c **** 		char_buffer = *buffer++;
  46:../lib/uart.c **** 		io_uart0_send_byte((int)char_buffer);
 968              	39 0
 969 0560 E4D50001 		moveq	r4, #1
 970              	.L169:
 971 0564 EBFFFFFE 		mov	r2, r1
 972              	.LVL109:
 973              		mov	lr, r4
 974 0568 E2544001 	.LVL110:
 975 056c 1AFFFFFB 	.L171:
 976 0570 E8BD8030 		.loc 3 22 0
 977              		mov	r3, lr, asl #2
 978              		.loc 3 21 0
 979              		cmp	lr, #1
 980              		.loc 3 22 0
 981              		sub	r3, r3, #4
 982              		.loc 3 21 0
 983              		mov	ip, r0
 984              	.LVL111:
   1:../lib/utilities.c **** #include "utilities.h"
   2:../lib/utilities.c **** 
   3:../lib/utilities.c **** // ############################################################################################
   4:../lib/utilities.c **** // Convert 4/8/12/16/20/24/28/32 bit hexadecimal value to ASCII string
   5:../lib/utilities.c ****    void long_to_hex_string(unsigned long data,    // max 32 bit data word
   6:../lib/utilities.c ****                            unsigned char *buffer, // buffer to store the string
   7:../lib/utilities.c **** 						   unsigned char numbers) // number of places, max 8
   8:../lib/utilities.c **** // ############################################################################################
   9:../lib/utilities.c **** {
 985              	hi	ip, r0, lsr r3
 986              		.loc 3 26 0
 987              		sub	r3, lr, #1
 988              		.loc 3 25 0
 989 0574 E92D4010 		and	ip, ip, #15
 990              	.LVL112:
 991              		.loc 3 26 0
 992 0578 E20240FF 		and	lr, r3, #255
  10:../lib/utilities.c **** 	unsigned char temp_char = 0;
  11:../lib/utilities.c **** 	unsigned long temp_data = 0;
  12:../lib/utilities.c **** 
  13:../lib/utilities.c **** 	// fit into range
  14:../lib/utilities.c **** 	if(numbers > 8)
 993              	29 0
 994 057c E3540008 		cmp	ip, #9
 995 0580 83A04008 		.loc 3 30 0
 996 0584 8A000001 		add	r3, ip, #48
 997              	.LVL113:
  15:../lib/utilities.c **** 		numbers = 8;
  16:../lib/utilities.c **** 	if(numbers < 1)
 998              	 3 32 0
 999 0588 E3540000 		addhi	r3, ip, #55
  17:../lib/utilities.c **** 		numbers = 1;
  18:../lib/utilities.c **** 
  19:../lib/utilities.c **** 	while(numbers > 0){
  20:../lib/utilities.c **** 		// isolate one 4-bit value
  21:../lib/utilities.c **** 		if(numbers > 1)
  22:../lib/utilities.c **** 			temp_data = data >> ((numbers-1)*4);
  23:../lib/utilities.c **** 		else
  24:../lib/utilities.c **** 			temp_data = data;
  25:../lib/utilities.c **** 		temp_data = temp_data & 0x0000000F;
  26:../lib/utilities.c **** 		numbers--;
  27:../lib/utilities.c **** 
  28:../lib/utilities.c **** 		// convert 4-bit value temp_data to char temp_char
  29:../lib/utilities.c **** 		if(temp_data < 10)
  30:../lib/utilities.c **** 			temp_char = '0' + temp_data;
  31:../lib/utilities.c **** 		else
  32:../lib/utilities.c **** 			temp_char = 'A' + temp_data - 10;
  33:../lib/utilities.c **** 
  34:../lib/utilities.c **** 		// save character
  35:../lib/utilities.c **** 		*buffer++ = temp_char;
  36:../lib/utilities.c **** 	}
  37:../lib/utilities.c **** 
  38:../lib/utilities.c **** 	*buffer++ = 0; // terminate string
  39:../lib/utilities.c **** }
 1000              	loc 3 19 0
 1001 058c 03A04001 		cmp	lr, #0
 1002              		.loc 3 35 0
 1003 0590 E1A02001 		strb	r3, [r2], #1
 1004              		.loc 3 19 0
 1005 0594 E1A0E004 		bne	.L171
 1006              		.loc 3 38 0
 1007              		sub	r3, r4, #1
 1008              	.LVL114:
 1009 0598 E1A0310E 		and	r3, r3, #255
 1010              		add	r3, r1, r3
 1011 059c E35E0001 		strb	lr, [r3, #1]
 1012              		.loc 3 39 0
 1013 05a0 E2433004 		ldmfd	sp!, {r4, pc}
 1014              	.LFE28:
 1016              		.align	2
 1017              		.global	get_adc
 1019              	get_adc:
 1020 05ac E24E3001 	.LFB29:
 1021              		.loc 3 45 0
 1022 05b0 E20CC00F 		@ args = 0, pretend = 0, frame = 0
 1023              		@ frame_needed = 0, uses_anonymous_args = 0
 1024              	.LVL115:
 1025 05b4 E203E0FF 		stmfd	sp!, {r4, lr}
 1026              	.LCFI6:
 1027 05b8 E35C0009 		.loc 3 45 0
 1028              		mov	r4, r0
 1029 05bc E28C3030 		.loc 3 48 0
 1030              		cmp	r4, #7
 1031              		.loc 3 52 0
 1032 05c0 828C3037 		mov	r1, #16
 1033              		mov	r0, #1
 1034 05c4 E35E0000 	.LVL116:
 1035              		.loc 3 48 0
 1036 05c8 E4C23001 		bls	.L188
 1037              		.loc 3 58 0
 1038 05cc 1AFFFFF1 		mov	r0, #0
 1039              		ldmfd	sp!, {r4, pc}
 1040 05d0 E2443001 	.L188:
 1041              		.loc 3 52 0
 1042 05d4 E20330FF 		bl	io_spi0_config
 1043 05d8 E0813003 		.loc 3 53 0
 1044 05dc E5C3E001 		mov	r0, #6
 1045              		bl	io_spi0_enable
 1046 05e0 E8BD8010 		.loc 3 56 0
 1047              		mov	r0, #0
 1048              		bl	io_spi0_trans
 1049              		.loc 3 57 0
 1050              		mov	r0, r4, asl #11
 1051              		.loc 3 58 0
 1052              		ldmfd	sp!, {r4, lr}
 1053              		.loc 3 57 0
  40:../lib/utilities.c **** 
  41:../lib/utilities.c **** // ############################################################################################
  42:../lib/utilities.c **** // read external ADC value
  43:../lib/utilities.c ****    unsigned int get_adc(int adc_index) // adc 0..7
  44:../lib/utilities.c **** // ############################################################################################
  45:../lib/utilities.c **** {
 1054              	lign	2
 1055              		.global	delay
 1057              	delay:
 1058 05e4 E92D4010 	.LFB30:
 1059              		.loc 3 64 0
 1060              		@ args = 0, pretend = 0, frame = 0
 1061 05e8 E1A04000 		@ frame_needed = 0, uses_anonymous_args = 0
  46:../lib/utilities.c **** 	unsigned long temp;
  47:../lib/utilities.c **** 
  48:../lib/utilities.c **** 	if ((adc_index < 0) || (adc_index > 7))
 1062              	register save eliminated.
 1063 05ec E3540007 	.LVL117:
  49:../lib/utilities.c **** 		return 0;
  50:../lib/utilities.c **** 
  51:../lib/utilities.c **** 	// config spi
  52:../lib/utilities.c **** 	io_spi0_config(1,16); // auto assert cs, 16 bit transfer
 1064              	loc 3 65 0
 1065 05f0 E3A01010 		rsb	r3, r0, r0, asl #5
 1066 05f4 E3A00001 		add	r0, r0, r3, asl #2
 1067              	.LVL118:
 1068              		add	r0, r0, r0, asl #2
 1069 05f8 9A000001 		mov	r0, r0, asl #4
  53:../lib/utilities.c **** 	io_spi0_enable(adc_cs);
  54:../lib/utilities.c **** 
  55:../lib/utilities.c **** 	temp = adc_index * 2048;
  56:../lib/utilities.c **** 	io_spi0_trans(0); // dummy read
  57:../lib/utilities.c **** 	return (unsigned int)io_spi0_trans(temp);
  58:../lib/utilities.c **** }
 1070              	9:
 1071 05fc E3A00000 		.loc 3 66 0
 1072 0600 E8BD8010 		cmp	r0, #0
 1073              		.loc 3 64 0
 1074              		@ lr needed for prologue
 1075 0604 EBFFFFFE 		.loc 3 66 0
 1076              		movle	pc, lr
 1077 0608 E3A00006 	.L193:
 1078 060c EBFFFFFE 		.loc 3 67 0
 1079              		NOP
 1080 0610 E3A00000 		.loc 3 66 0
 1081 0614 EBFFFFFE 		subs	r0, r0, #1
 1082              		bne	.L193
 1083 0618 E1A00584 		mov	pc, lr
 1084              	.LFE30:
 1086              		.align	2
 1087 0620 EAFFFFFE 		.global	string_cmpc
 1089              	string_cmpc:
 1090              	.LFB31:
 1091              		.loc 3 76 0
 1092              		@ args = 0, pretend = 0, frame = 0
 1093              		@ frame_needed = 0, uses_anonymous_args = 0
 1094              		@ link register save eliminated.
  59:../lib/utilities.c **** 
  60:../lib/utilities.c **** // ############################################################################################
  61:../lib/utilities.c **** // simple delay routine
  62:../lib/utilities.c ****    void delay(int time) // waits time*10000 clock ticks
  63:../lib/utilities.c **** // ############################################################################################
  64:../lib/utilities.c **** {
 1095              	ds	ip, r2, #255
 1096              		.loc 3 76 0
 1097              		@ lr needed for prologue
 1098              		.loc 3 77 0
 1099              		beq	.L196
  65:../lib/utilities.c **** 	time = time*2500*4;
 1100              	21:
 1101 0624 E0603280 		.loc 3 78 0
 1102 0628 E0800103 		ldrb	r2, [r0, #0]	@ zero_extendqisi2
 1103              		ldrb	r3, [r1, #0]	@ zero_extendqisi2
 1104 062c E0800100 		cmp	r2, r3
 1105 0630 E1A00200 		beq	.L200
 1106              		b	.L198
  66:../lib/utilities.c **** 	while(time > 0){
 1107              	.LVL122:
 1108 0634 E3500000 		ldrb	r2, [r0, #1]!	@ zero_extendqisi2
 1109              	.LVL123:
 1110              		ldrb	r3, [r1, #1]!	@ zero_extendqisi2
 1111              		cmp	r2, r3
 1112 0638 D1A0F00E 		bne	.L198
 1113              	.LVL124:
  67:../lib/utilities.c **** 		asm volatile ("NOP");
 1114              		.loc 3 80 0
 1115 063c E1A00000 		sub	r3, ip, #1
 1116              		.loc 3 77 0
 1117 0640 E2500001 		ands	ip, r3, #255
 1118 0644 1AFFFFFC 		bne	.L201
 1119 0648 E1A0F00E 	.LVL125:
 1120              	.L196:
 1121              		mov	r0, #1
 1122              	.LVL126:
 1123              		.loc 3 83 0
 1124              		mov	pc, lr
 1125              	.LVL127:
 1126              	.L198:
  68:../lib/utilities.c **** 		time--;
  69:../lib/utilities.c **** 	}
  70:../lib/utilities.c **** }
  71:../lib/utilities.c **** 
  72:../lib/utilities.c **** // ############################################################################################
  73:../lib/utilities.c **** // String compare, buffered string with immediate const char string
  74:../lib/utilities.c ****    unsigned char string_cmpc(unsigned char *string1, const char *string2, unsigned char length)
  75:../lib/utilities.c **** // ############################################################################################
  76:../lib/utilities.c **** {
 1127              		mov	r0, #0
 1128              	.LVL128:
 1129              		mov	pc, lr
 1130              	.LFE31:
  77:../lib/utilities.c **** 	while(length != 0){
 1132              	gn	2
 1133 064c E212C0FF 		.global	hex_string_to_long
 1135              	hex_string_to_long:
 1136              	.LFB32:
 1137 0650 0A00000B 		.file 4 "main.c"
 1138              		.loc 4 11 0
  78:../lib/utilities.c **** 		if(*string1++ != (unsigned char)*string2++)
 1139              	 = 0, pretend = 0, frame = 0
 1140 0654 E5D02000 		@ frame_needed = 0, uses_anonymous_args = 0
 1141 0658 E5D13000 	.LVL129:
 1142 065c E1520003 		stmfd	sp!, {r4, r5, lr}
 1143 0660 0A000004 	.LCFI7:
 1144 0664 EA000008 		.loc 4 15 0
 1145              		mov	r4, r1, asl #1
 1146              		cmp	r4, #0
 1147 0668 E5F02001 		.loc 4 11 0
 1148              		mov	r5, r0
 1149 066c E5F13001 		.loc 4 15 0
 1150 0670 E1520003 		movle	r0, #0
 1151 0674 1A000004 	.LVL130:
 1152              		ldmlefd	sp!, {r4, r5, pc}
 1153              		mov	r0, #0
  79:../lib/utilities.c **** 			return(0); // missmatch
  80:../lib/utilities.c **** 		length--;
 1154              	L131:
 1155 0678 E24C3001 	.L208:
 1156              		.loc 4 16 0
 1157 067c E213C0FF 		ldrb	r2, [r1, r5]	@ zero_extendqisi2
 1158 0680 1AFFFFF8 		sub	r3, r2, #48
 1159              		.loc 4 17 0
 1160              		add	ip, r2, r0, asl #4
 1161 0684 E3A00001 		.loc 4 16 0
 1162              		cmp	r3, #9
  81:../lib/utilities.c **** 	}
  82:../lib/utilities.c **** 	return(1); // match
  83:../lib/utilities.c **** }
 1163              	8 0
 1164 0688 E1A0F00E 		sub	lr, r2, #65
 1165              		.loc 4 17 0
 1166              		subls	r0, ip, #48
 1167              		.loc 4 16 0
 1168 068c E3A00000 		bls	.L211
 1169              		.loc 4 19 0
 1170 0690 E1A0F00E 		add	r3, r2, r0, asl #4
 1171              		.loc 4 18 0
 1172              		cmp	lr, #5
 1173              		.loc 4 20 0
 1174              		sub	ip, r2, #97
 1175              		.loc 4 19 0
 1176              		subls	r0, r3, #55
 1177              		.loc 4 18 0
 1178              		bls	.L211
   1:main.c        **** #include "../lib/storm_core.h"
   2:main.c        **** #include "../lib/storm_soc_basic.h"
   3:main.c        **** #include "../lib/io_driver.c"
   4:main.c        **** #include "../lib/uart.c"
   5:main.c        **** #include "../lib/utilities.c"
   6:main.c        **** 
   7:main.c        **** //#define JUMPADDRESS 0x00000000
   8:main.c        **** #define JUMPADDRESS 0x04000000
   9:main.c        **** 
  10:main.c        **** unsigned long int hex_string_to_long ( char *hexstr, int charlen )
  11:main.c        **** {
 1179              	d	r3, r2, r0, asl #4
 1180              		.loc 4 20 0
 1181              		cmp	ip, #5
 1182              		.loc 4 21 0
 1183 0694 E92D4030 		subls	r0, r3, #87
 1184              	.L211:
  12:main.c        **** 	unsigned long int hexval =  0 ;
  13:main.c        **** 	int i;
  14:main.c        **** 
  15:main.c        **** 	for (i=0 ; i< (charlen*2) ; i++ ) {
 1185              	4 15 0
 1186 0698 E1A04081 		add	r1, r1, #1
 1187 069c E3540000 		cmp	r1, r4
 1188              		bne	.L208
 1189 06a0 E1A05000 	.LVL132:
 1190              		.loc 4 25 0
 1191 06a4 D3A00000 		ldmfd	sp!, {r4, r5, pc}
 1192              	.LFE32:
 1194 06ac E3A00000 		.align	2
 1195 06b0 E1A01000 		.global	qbytes_to_long
 1197              	qbytes_to_long:
  16:main.c        **** 		if (( hexstr[i] >= 48 ) & (hexstr[i] <= 57 )) 
 1198              	 4 28 0
 1199 06b4 E7D12005 		@ args = 0, pretend = 0, frame = 0
 1200 06b8 E2423030 		@ frame_needed = 0, uses_anonymous_args = 0
  17:main.c        **** 			hexval = (hexval <<4 ) + hexstr[i] - (int) '0';
 1201              	link register save eliminated.
 1202 06bc E082C200 	.LVL133:
 1203              		ldrb	r3, [r0, #3]	@ zero_extendqisi2
 1204 06c0 E3530009 		ldrb	r2, [r0, #2]	@ zero_extendqisi2
  18:main.c        **** 		else if (( hexstr[i] >= 65 ) & ( hexstr[i] <= 70 )) 
 1205              	b	r1, [r0, #0]	@ zero_extendqisi2
 1206 06c4 E242E041 		orr	r3, r3, r2, asl #8
 1207              		ldrb	r0, [r0, #1]	@ zero_extendqisi2
 1208 06c8 924C0030 	.LVL134:
 1209              		orr	r3, r3, r1, asl #24
 1210 06cc 9A000007 		.loc 4 38 0
  19:main.c        **** 			hexval = (hexval <<4 ) + hexstr[i] + 10 - (int) 'A';
 1211              	0, r3, r0, asl #16
 1212 06d0 E0823200 		.loc 4 28 0
 1213              		@ lr needed for prologue
 1214 06d4 E35E0005 		.loc 4 38 0
  20:main.c        **** 		else if (( hexstr[i] >= 97 ) & ( hexstr[i] <= 102)) 
 1215              		pc, lr
 1216 06d8 E242C061 	.LFE33:
 1218 06dc 92430037 		.section	.rodata.str1.4,"aMS",%progbits,1
 1219              		.align	2
 1220 06e0 9A000002 	.LC1:
  21:main.c        **** 			hexval = (hexval <<4 ) + hexstr[i] +10 - (int) 'a';
 1221              	i	" 0 - boot from core RAM (start application)\015\012"
 1222 06e4 E0823200 		.ascii	" 1 - program core RAM via UART_0\015\012 2 - core R"
 1223              		.ascii	"AM dump\015\012\000"
 1224 06e8 E35C0005 		.align	2
 1225              	.LC2:
 1226 06ec 92430057 		.ascii	" 3 - boot from I2C EEPROM\015\012 4 - program I2C E"
 1227              		.ascii	"EPROM via UART_0\015\012 5 - show content of I2C EE"
 1228              		.ascii	"PROM\015\012\000"
 1229 06f0 E2811001 		.align	2
 1230 06f4 E1510004 	.LC3:
 1231 06f8 1AFFFFED 		.ascii	" a - automatic boot configuration\015\012 h - help\015"
 1232              		.ascii	"\012 r - restart system\015\012\015\012Select: \000"
  22:main.c        **** 	} //for
  23:main.c        ****  
  24:main.c        **** 	return hexval;
  25:main.c        **** }
 1233              	gn	2
 1234 06fc E8BD8030 		.global	print_intro
 1236              	print_intro:
 1237              	.LFB34:
 1238              		.loc 4 40 0
 1239              		@ args = 0, pretend = 0, frame = 0
 1240              		@ frame_needed = 0, uses_anonymous_args = 0
 1241              		str	lr, [sp, #-4]!
  26:main.c        **** 
  27:main.c        **** unsigned long int qbytes_to_long ( unsigned char *buffer )
  28:main.c        **** {
 1242              	.loc 4 43 0
 1243              		ldr	r0, .L221
 1244              		bl	uart0_printf
 1245              		.loc 4 44 0
 1246              		ldr	r0, .L221+4
 1247 0700 E5D03003 		bl	uart0_printf
 1248 0704 E5D02002 		.loc 4 45 0
 1249 0708 E5D01000 		ldr	r0, .L221+8
 1250 070c E1833402 		.loc 4 46 0
 1251 0710 E5D00001 		ldr	lr, [sp], #4
 1252              		.loc 4 45 0
 1253 0714 E1833C01 		b	uart0_printf
  29:main.c        **** 	unsigned char d = buffer[0];
  30:main.c        **** 	unsigned char c = buffer[1];
  31:main.c        **** 	unsigned char b = buffer[2];
  32:main.c        **** 	unsigned char a = buffer[3];
  33:main.c        **** 	unsigned long n;
  34:main.c        **** 
  35:main.c        **** 
  36:main.c        **** 	n = a|(b<<8)|(c<<16)|(d<<24);
  37:main.c        **** 	return n;
  38:main.c        **** }
 1254              	gn	2
 1255 0718 E1830800 	.L221:
 1256              		.word	.LC1
 1257              		.word	.LC2
 1258              		.word	.LC3
 1259 071c E1A0F00E 	.LFE34:
 1261              		.section	.rodata.str1.4
 1262              		.align	2
 1263              	.LC4:
 1264              		.ascii	"\015\012\015\012\015\012+--------------------------"
 1265 0000 2030202D 		.ascii	"--------------------------------------+\015\012\000"
 1265      20626F6F 
 1265      74206672 
 1265      6F6D2063 
 1265      6F726520 
 1266 002d 2031202D 		.align	2
 1266      2070726F 
 1266      6772616D 
 1266      20636F72 
 1266      65205241 
 1267 005a 414D2064 	.LC5:
 1267      756D700D 
 1267      0A00
 1268              		.ascii	"|    <<< STORM Core Processor System - By Stephan N"
 1269              		.ascii	"olting >>>    |\015\012\000"
 1270 0064 2033202D 		.align	2
 1270      20626F6F 
 1270      74206672 
 1270      6F6D2049 
 1270      32432045 
 1271 0091 4550524F 	.LC6:
 1271      4D207669 
 1271      61205541 
 1271      52545F30 
 1271      0D0A2035 
 1272 00be 50524F4D 		.ascii	"+--------------------------------------------------"
 1272      0D0A00
 1273 00c5 000000   		.ascii	"--------------+\015\012\000"
 1274              		.align	2
 1275 00c8 2061202D 	.LC7:
 1275      20617574 
 1275      6F6D6174 
 1275      69632062 
 1275      6F6F7420 
 1276 00f5 0A207220 		.ascii	"|         Bootloader for STORM SoC   Version: 20120"
 1276      2D207265 
 1276      73746172 
 1276      74207379 
 1276      7374656D 
 1277              		.ascii	"524-D         |\015\012\000"
 1278              		.align	2
 1279              	.LC8:
 1280              		.ascii	"|               Contact: stnolting@googlemail.com  "
 1281              		.ascii	"              |\015\012\000"
 1282              		.align	2
  39:main.c        **** 
  40:main.c        **** void print_intro(){
 1283              	-------------------------------------"
 1284              		.ascii	"--------------+\015\012\015\012\000"
 1285              		.align	2
 1286 0720 E52DE004 	.LC10:
 1287              		.ascii	" < Welcome to the STORM SoC bootloader console! >\015"
  41:main.c        **** 
  42:main.c        **** 	// Console menu
  43:main.c        **** 	uart0_printf(" 0 - boot from core RAM (start application)\r\n 1 - program core RAM via UART_0\r\n 
 1288              	ii	"\012 < Select an operation from the menu below or p"
 1289 0724 E59F0014 		.ascii	"ress >\015\012\000"
 1290 0728 EBFFFFFE 		.align	2
  44:main.c        **** 	uart0_printf(" 3 - boot from I2C EEPROM\r\n 4 - program I2C EEPROM via UART_0\r\n 5 - show content
 1291              	11:
 1292 072c E59F0010 		.ascii	" < the boot key for immediate application start. >\015"
 1293 0730 EBFFFFFE 		.ascii	"\012\015\012\000"
  45:main.c        **** 	uart0_printf(" a - automatic boot configuration\r\n h - help\r\n r - restart system\r\n\r\nSelect:
 1294              	lign	2
 1295 0734 E59F000C 	.LC12:
  46:main.c        **** }
 1296              	ascii	" Load Address: \000"
 1297 0738 E49DE004 		.align	2
 1298              	.LC13:
 1299 073c EAFFFFFE 		.ascii	"\015\012\000"
 1300              		.align	2
 1301              	.LC14:
 1302              		.ascii	"\012\015\000"
 1303 0740 00000000 		.align	2
 1304 0744 00000064 	.LC15:
 1305 0748 000000C8 		.ascii	"\015\012\015\012Application will start automaticall"
 1306              		.ascii	"y after download.\015\012-> Waiting for 'storm_prog"
 1307              		.ascii	"ram.bin' in byte-stream mode...\000"
 1308              		.align	2
 1309 0116 0000     	.LC16:
 1310              		.ascii	" ERROR! Program file too big!\015\012\015\012\000"
 1311 0118 0D0A0D0A 		.align	2
 1311      0D0A2B2D 
 1311      2D2D2D2D 
 1311      2D2D2D2D 
 1311      2D2D2D2D 
 1312 0139 2D2D2D2D 	.LC17:
 1312      2D2D2D2D 
 1312      2D2D2D2D 
 1312      2D2D2D2D 
 1312      2D2D2D2D 
 1313 0163 00       		.ascii	" Invalid programming file!\015\012\015\012Select: \000"
 1314              		.align	2
 1315 0164 7C202020 	.LC18:
 1315      203C3C3C 
 1315      2053544F 
 1315      524D2043 
 1315      6F726520 
 1316 0197 6F6C7469 		.ascii	"\015\012\015\012Abort dumping by pressing any key.\015"
 1316      6E67203E 
 1316      3E3E2020 
 1316      20207C0D 
 1316      0A00
 1317 01a9 000000   		.ascii	"\012Press any key to continue.\015\012\015\012\000"
 1318              		.align	2
 1319 01ac 2B2D2D2D 	.LC19:
 1319      2D2D2D2D 
 1319      2D2D2D2D 
 1319      2D2D2D2D 
 1319      2D2D2D2D 
 1320 01df 2D2D2D2D 		.ascii	"\015\012\015\012Dumping completed.\015\012\015\012S"
 1320      2D2D2D2D 
 1320      2D2D2D2D 
 1320      2D2D2B0D 
 1320      0A00
 1321 01f1 000000   		.ascii	"elect: \000"
 1322              		.align	2
 1323 01f4 7C202020 	.LC20:
 1323      20202020 
 1323      2020426F 
 1323      6F746C6F 
 1323      61646572 
 1324 0227 3532342D 		.ascii	"\015\012\015\012Enter device address (2x hex_chars,"
 1324      44202020 
 1324      20202020 
 1324      20207C0D 
 1324      0A00
 1325 0239 000000   		.ascii	" set LSB to '0'): \000"
 1326              		.align	2
 1327 023c 7C202020 	.LC21:
 1327      20202020 
 1327      20202020 
 1327      20202020 
 1327      436F6E74 
 1328 026f 20202020 		.ascii	" Invalid address!\015\012\015\012Select: \000"
 1328      20202020 
 1328      20202020 
 1328      20207C0D 
 1328      0A00
 1329 0281 000000   		.align	2
 1330              	.LC22:
 1331 0284 2B2D2D2D 		.ascii	"\015\012Application will start automatically after "
 1331      2D2D2D2D 
 1331      2D2D2D2D 
 1331      2D2D2D2D 
 1331      2D2D2D2D 
 1332 02b7 2D2D2D2D 		.ascii	"upload.\015\012-> Loading boot image...\000"
 1332      2D2D2D2D 
 1332      2D2D2D2D 
 1332      2D2D2B0D 
 1332      0A0D0A00 
 1333 02cb 00       		.align	2
 1334              	.LC23:
 1335 02cc 203C2057 		.ascii	" Upload complete\015\012\000"
 1335      656C636F 
 1335      6D652074 
 1335      6F207468 
 1335      65205354 
 1336 02fe 0A203C20 		.align	2
 1336      53656C65 
 1336      63742061 
 1336      6E206F70 
 1336      65726174 
 1337 032e 72657373 	.LC24:
 1337      203E0D0A 
 1337      00
 1338 0337 00       		.ascii	" Invalid boot device or file!\015\012\015\012Select"
 1339              		.ascii	": \000"
 1340 0338 203C2074 		.align	2
 1340      68652062 
 1340      6F6F7420 
 1340      6B657920 
 1340      666F7220 
 1341 036b 0A0D0A00 	.LC25:
 1342 036f 00       		.ascii	"\015\012Invalid address!\015\012\015\012Select: \000"
 1343              		.align	2
 1344 0370 204C6F61 	.LC26:
 1344      64204164 
 1344      64726573 
 1344      733A2000 
 1345              		.ascii	"\015\012Data will overwrite RAM content!\015\012-> "
 1346              		.ascii	"Waiting for 'storm_program.bin' in byte-stream mode"
 1347 0380 0D0A00   		.ascii	"...\000"
 1348 0383 00       		.align	2
 1349              	.LC27:
 1350 0384 0A0D00   		.ascii	" Download completed\015\012\000"
 1351 0387 00       		.align	2
 1352              	.LC28:
 1353 0388 0D0A0D0A 		.ascii	"Writing buffer to i2c EEPROM...\000"
 1353      4170706C 
 1353      69636174 
 1353      696F6E20 
 1353      77696C6C 
 1354 03af 79206166 		.align	2
 1354      74657220 
 1354      646F776E 
 1354      6C6F6164 
 1354      2E0D0A2D 
 1355 03dc 72616D2E 	.LC29:
 1355      62696E27 
 1355      20696E20 
 1355      62797465 
 1355      2D737472 
 1356              		.ascii	" Completed\015\012\015\012\000"
 1357              		.align	2
 1358 03fc 20455252 	.LC30:
 1358      4F522120 
 1358      50726F67 
 1358      72616D20 
 1358      66696C65 
 1359 041e 0000     		.ascii	" Invalid boot device or file!\015\012\015\012\000"
 1360              		.align	2
 1361 0420 20496E76 	.LC31:
 1361      616C6964 
 1361      2070726F 
 1361      6772616D 
 1361      6D696E67 
 1362 0447 00       		.ascii	"Select: \000"
 1363              		.align	2
 1364 0448 0D0A0D0A 	.LC32:
 1364      41626F72 
 1364      74206475 
 1364      6D70696E 
 1364      67206279 
 1365 046f 0A507265 		.ascii	"\015\012\015\012Enter device address (2 hex-chars, "
 1365      73732061 
 1365      6E79206B 
 1365      65792074 
 1365      6F20636F 
 1366 048f 00       		.ascii	"set LSB to '0'): \000"
 1367              		.align	2
 1368 0490 0D0A0D0A 	.LC33:
 1368      44756D70 
 1368      696E6720 
 1368      636F6D70 
 1368      6C657465 
 1369 04ab 656C6563 		.ascii	"\015\012\015\012Abort dumping by pressing any key. "
 1369      743A2000 
 1370 04b3 00       		.ascii	"If no data is shown,\015\012\000"
 1371              		.align	2
 1372 04b4 0D0A0D0A 	.LC34:
 1372      456E7465 
 1372      72206465 
 1372      76696365 
 1372      20616464 
 1373 04db 20736574 		.ascii	"the selected device is not responding. Press any ke"
 1373      204C5342 
 1373      20746F20 
 1373      27302729 
 1373      3A2000
 1374 04ee 0000     		.ascii	"y to continue.\015\012\015\012\000"
 1375              		.align	2
 1376 04f0 20496E76 	.LC35:
 1376      616C6964 
 1376      20616464 
 1376      72657373 
 1376      210D0A0D 
 1377 050e 0000     		.ascii	"\015\012\015\012Automatic boot configuration for po"
 1378              		.ascii	"wer-up:\015\012\000"
 1379 0510 0D0A4170 		.align	2
 1379      706C6963 
 1379      6174696F 
 1379      6E207769 
 1379      6C6C2073 
 1380 053d 75706C6F 	.LC36:
 1380      61642E0D 
 1380      0A2D3E20 
 1380      4C6F6164 
 1380      696E6720 
 1381 055f 00       		.ascii	"[3210] configuration DIP switch\015\012 0000 - Star"
 1382              		.ascii	"t bootloader console\015\012 0001 - Automatic boot "
 1383 0560 2055706C 		.ascii	"from core RAM\015\012\000"
 1383      6F616420 
 1383      636F6D70 
 1383      6C657465 
 1383      0D0A00
 1384 0573 00       		.align	2
 1385              	.LC37:
 1386 0574 20496E76 		.ascii	" 0010 - Automatic boot from I2C EEPROM (Address 0xA"
 1386      616C6964 
 1386      20626F6F 
 1386      74206465 
 1386      76696365 
 1387 059b 3A2000   		.ascii	"0)\015\012\015\012Select: \000"
 1388 059e 0000     		.align	2
 1389              	.LC38:
 1390 05a0 0D0A496E 		.ascii	"\015\012\015\012STORM SoC bootloader\015\012\000"
 1390      76616C69 
 1390      64206164 
 1390      64726573 
 1390      73210D0A 
 1391 05bf 00       		.align	2
 1392              	.LC39:
 1393 05c0 0D0A4461 		.ascii	"'0': Execute program in RAM.\015\012\000"
 1393      74612077 
 1393      696C6C20 
 1393      6F766572 
 1393      77726974 
 1394 05e7 57616974 		.align	2
 1394      696E6720 
 1394      666F7220 
 1394      2773746F 
 1394      726D5F70 
 1395 061a 2E2E2E00 	.LC40:
 1396 061e 0000     		.ascii	"'1': Write 'storm_program.bin' to the core's RAM vi"
 1397              		.ascii	"a UART.\015\012\000"
 1398 0620 20446F77 		.align	2
 1398      6E6C6F61 
 1398      6420636F 
 1398      6D706C65 
 1398      7465640D 
 1399 0636 0000     	.LC41:
 1400              		.ascii	"'2': Print current content of complete core RAM.\015"
 1401 0638 57726974 		.ascii	"\012\000"
 1401      696E6720 
 1401      62756666 
 1401      65722074 
 1401      6F206932 
 1402              		.align	2
 1403              	.LC42:
 1404 0658 20436F6D 		.ascii	"'3': Load boot image from EEPROM and start applicat"
 1404      706C6574 
 1404      65640D0A 
 1404      0D0A00
 1405 0667 00       		.ascii	"ion.\015\012\000"
 1406              		.align	2
 1407 0668 20496E76 	.LC43:
 1407      616C6964 
 1407      20626F6F 
 1407      74206465 
 1407      76696365 
 1408 068a 0000     		.ascii	"'4': Write 'storm_program.bin' to I2C EEPROM via UA"
 1409              		.ascii	"RT.\015\012\000"
 1410 068c 53656C65 		.align	2
 1410      63743A20 
 1410      00
 1411 0695 000000   	.LC44:
 1412              		.ascii	"'5': Print content of I2C EEPROM.\015\012\000"
 1413 0698 0D0A0D0A 		.align	2
 1413      456E7465 
 1413      72206465 
 1413      76696365 
 1413      20616464 
 1414 06bf 73657420 	.LC45:
 1414      4C534220 
 1414      746F2027 
 1414      3027293A 
 1414      2000
 1415 06d1 000000   		.ascii	"'a': Show DIP switch configurations for automatic b"
 1416              		.ascii	"oot.\015\012\000"
 1417 06d4 0D0A0D0A 		.align	2
 1417      41626F72 
 1417      74206475 
 1417      6D70696E 
 1417      67206279 
 1418 06fb 4966206E 	.LC46:
 1418      6F206461 
 1418      74612069 
 1418      73207368 
 1418      6F776E2C 
 1419 0712 0000     		.ascii	"'h': Show this screen.\015\012\000"
 1420              		.align	2
 1421 0714 74686520 	.LC47:
 1421      73656C65 
 1421      63746564 
 1421      20646576 
 1421      69636520 
 1422 0747 7920746F 		.ascii	"'r': Reset system.\015\012\015\012\000"
 1422      20636F6E 
 1422      74696E75 
 1422      652E0D0A 
 1422      0D0A00
 1423 075a 0000     		.align	2
 1424              	.LC48:
 1425 075c 0D0A0D0A 		.ascii	"Boot EEPROM: 24xxnnn (like 24AA64), 7 bit address +"
 1425      4175746F 
 1425      6D617469 
 1425      6320626F 
 1425      6F742063 
 1426 0783 7765722D 		.ascii	" dont-care bit,\015\012\000"
 1426      75703A0D 
 1426      0A00
 1427 078d 000000   		.align	2
 1428              	.LC49:
 1429 0790 5B333231 		.ascii	"connected to I2C_CONTROLLER_0, operating frequency "
 1429      305D2063 
 1429      6F6E6669 
 1429      67757261 
 1429      74696F6E 
 1430 07bd 7420626F 		.ascii	"is 100kHz,\015\012\000"
 1430      6F746C6F 
 1430      61646572 
 1430      20636F6E 
 1430      736F6C65 
 1431 07ea 66726F6D 		.align	2
 1431      20636F72 
 1431      65205241 
 1431      4D0D0A00 
 1432 07fa 0000     	.LC50:
 1433              		.ascii	"maximum EEPROM size = 65536 byte => 16 bit addresse"
 1434 07fc 20303031 		.ascii	"s,\015\012\000"
 1434      30202D20 
 1434      4175746F 
 1434      6D617469 
 1434      6320626F 
 1435 082f 30290D0A 		.align	2
 1435      0D0A5365 
 1435      6C656374 
 1435      3A2000
 1436 083e 0000     	.LC51:
 1437              		.ascii	"fixed boot device address: 0xA0\015\012\015\012\000"
 1438 0840 0D0A0D0A 		.align	2
 1438      53544F52 
 1438      4D20536F 
 1438      4320626F 
 1438      6F746C6F 
 1439 085b 00       	.LC52:
 1440              		.ascii	"Terminal setup: 9600 baud, 8 data bits, no parity, "
 1441 085c 2730273A 		.ascii	"1 stop bit\015\012\015\012\000"
 1441      20457865 
 1441      63757465 
 1441      2070726F 
 1441      6772616D 
 1442 087b 00       		.align	2
 1443              	.LC53:
 1444 087c 2731273A 		.ascii	"For more information see the STORM Core / STORM SoC"
 1444      20577269 
 1444      74652027 
 1444      73746F72 
 1444      6D5F7072 
 1445 08af 61205541 		.ascii	" datasheet\015\012\000"
 1445      52542E0D 
 1445      0A00
 1446 08b9 000000   		.align	2
 1447              	.LC54:
 1448 08bc 2732273A 		.ascii	"http://opencores.org/project,storm_core\015\012\000"
 1448      20507269 
 1448      6E742063 
 1448      75727265 
 1448      6E742063 
 1449 08ed 0A00     		.align	2
 1450 08ef 00       	.LC55:
 1451              		.ascii	"http://opencores.org/project,storm_soc\015\012\000"
 1452 08f0 2733273A 		.align	2
 1452      204C6F61 
 1452      6420626F 
 1452      6F742069 
 1452      6D616765 
 1453 0923 696F6E2E 	.LC56:
 1453      0D0A00
 1454 092a 0000     		.ascii	"Contact: stnolting@googlemail.com\015\012\000"
 1455              		.align	2
 1456 092c 2734273A 	.LC57:
 1456      20577269 
 1456      74652027 
 1456      73746F72 
 1456      6D5F7072 
 1457 095f 52542E0D 		.ascii	"(c) 2012 by Stephan Nolting\015\012\015\012Select: "
 1457      0A00
 1458 0965 000000   		.ascii	"\000"
 1459              		.align	2
 1460 0968 2735273A 	.LC58:
 1460      20507269 
 1460      6E742063 
 1460      6F6E7465 
 1460      6E74206F 
 1461              		.ascii	"\015\012\015\012We'll send you back - to the future"
 1462              		.ascii	"!.\015\012\015\012\000"
 1463 098c 2761273A 		.align	2
 1463      2053686F 
 1463      77204449 
 1463      50207377 
 1463      69746368 
 1464 09bf 6F6F742E 	.LC59:
 1464      0D0A00
 1465 09c6 0000     		.ascii	" - Doctor Emmet L. Brown\015\012\015\012Select: \000"
 1466              		.align	2
 1467 09c8 2768273A 	.LC60:
 1467      2053686F 
 1467      77207468 
 1467      69732073 
 1467      63726565 
 1468 09e1 000000   		.ascii	" Invalid operation!\015\012Try again: \000"
 1469              		.align	2
 1470 09e4 2772273A 	.LC61:
 1470      20526573 
 1470      65742073 
 1470      79737465 
 1470      6D2E0D0A 
 1471 09fb 00       		.ascii	"\015\012\015\012-> Starting application...\015\012\015"
 1472              		.ascii	"\012\000"
 1473 09fc 426F6F74 		.align	2
 1473      20454550 
 1473      524F4D3A 
 1473      20323478 
 1473      786E6E6E 
 1474 0a2f 20646F6E 	.LC62:
 1474      742D6361 
 1474      72652062 
 1474      69742C0D 
 1474      0A00
 1475 0a41 000000   		.ascii	"\015\012\015\012-Clear D$\015\012\015\012\000"
 1476              		.align	2
 1477 0a44 636F6E6E 	.LC63:
 1477      65637465 
 1477      6420746F 
 1477      20493243 
 1477      5F434F4E 
 1478 0a77 69732031 		.ascii	"\015\012\015\012-Clear I$\015\012\015\012\000"
 1478      30306B48 
 1478      7A2C0D0A 
 1478      00
 1479              		.align	2
 1480              	.LC64:
 1481 0a84 6D617869 		.ascii	"\015\012\015\012Aborted!\000"
 1481      6D756D20 
 1481      45455052 
 1481      4F4D2073 
 1481      697A6520 
 1482 0ab7 732C0D0A 		.text
 1482      00
 1483              		.align	2
 1484              		.global	main
 1486              	main:
 1487              	.LFB35:
 1488 0ae0 5465726D 		.loc 4 53 0
 1488      696E616C 
 1488      20736574 
 1488      75703A20 
 1488      39363030 
 1489 0b13 31207374 		@ args = 0, pretend = 0, frame = 20
 1489      6F702062 
 1489      69740D0A 
 1489      0D0A00
 1490 0b22 0000     		@ frame_needed = 0, uses_anonymous_args = 0
 1491              		stmfd	sp!, {r4, r5, r6, r7, r8, r9, sl, lr}
 1492 0b24 466F7220 	.LCFI9:
 1492      6D6F7265 
 1492      20696E66 
 1492      6F726D61 
 1492      74696F6E 
 1493 0b57 20646174 		.loc 4 59 0
 1493      61736865 
 1493      65740D0A 
 1493      00
 1494              		mov	r0, #0
 1495              		.loc 4 53 0
 1496 0b64 68747470 		sub	sp, sp, #24
 1496      3A2F2F6F 
 1496      70656E63 
 1496      6F726573 
 1496      2E6F7267 
 1497 0b8e 0000     	.LCFI10:
 1498              		.loc 4 59 0
 1499 0b90 68747470 		bl	io_set_gpio0_port
 1499      3A2F2F6F 
 1499      70656E63 
 1499      6F726573 
 1499      2E6F7267 
 1500 0bb9 000000   		.loc 4 60 0
 1501              		mov	r1, #13
 1502 0bbc 436F6E74 		mov	r0, #195
 1502      6163743A 
 1502      2073746E 
 1502      6F6C7469 
 1502      6E674067 
 1503              		bl	set_syscpreg
 1504              		.loc 4 63 0
 1505 0be0 28632920 		mov	r0, #99
 1505      32303132 
 1505      20627920 
 1505      53746570 
 1505      68616E20 
 1506 0c07 00       		bl	io_i2c0_speed
 1507              		.loc 4 66 0
 1508              		mov	r0, #6
 1509 0c08 0D0A0D0A 		bl	get_syscpreg
 1509      5765276C 
 1509      6C207365 
 1509      6E642079 
 1509      6F752062 
 1510 0c2f 212E0D0A 		mov	r1, #6
 1510      0D0A00
 1511 0c36 0000     		orr	r0, r0, #8
 1512              		bl	set_syscpreg
 1513 0c38 202D2044 		.loc 4 69 0
 1513      6F63746F 
 1513      7220456D 
 1513      6D657420 
 1513      4C2E2042 
 1514 0c5d 000000   		mov	r0, #13
 1515              		bl	get_syscpreg
 1516 0c60 20496E76 		.loc 4 70 0
 1516      616C6964 
 1516      206F7065 
 1516      72617469 
 1516      6F6E210D 
 1517 0c81 000000   		mov	r0, r0, lsr #17
 1518              		mvn	r0, r0
 1519 0c84 0D0A0D0A 		and	r0, r0, #15
 1519      2D3E2053 
 1519      74617274 
 1519      696E6720 
 1519      6170706C 
 1520 0ca5 0A00     		cmp	r0, #1
 1521 0ca7 00       		moveq	r4, #48
 1522              	.LVL135:
 1523 0ca8 0D0A0D0A 		addeq	sl, sp, #6
 1523      2D436C65 
 1523      61722044 
 1523      240D0A0D 
 1523      0A00
 1524 0cba 0000     		addeq	r9, sp, #15
 1525              		beq	.L227
 1526 0cbc 0D0A0D0A 		cmp	r0, #2
 1526      2D436C65 
 1526      61722049 
 1526      240D0A0D 
 1526      0A00
 1527 0cce 0000     		beq	.L340
 1528              		.loc 4 77 0
 1529 0cd0 0D0A0D0A 		ldr	r0, .L350
 1529      41626F72 
 1529      74656421 
 1529      00
 1530 0cdd 000000   		bl	uart0_printf
 1531              		.loc 4 78 0
 1532              		ldr	r0, .L350+4
 1533              		bl	uart0_printf
 1534              		.loc 4 79 0
 1535              		ldr	r0, .L350+8
  47:main.c        **** 
  48:main.c        **** 
  49:main.c        **** // ############################################################################################
  50:main.c        **** // STORM SoC Bootloader
  51:main.c        ****    int main(void)
  52:main.c        **** // ############################################################################################
  53:main.c        **** {
 1536              	, .L350+16
 1537              		bl	uart0_printf
 1538              		.loc 4 82 0
 1539 074c E92D47F0 		ldr	r0, .L350+20
 1540              		bl	uart0_printf
  54:main.c        **** 	int function_sel, data, i, start_app = 0;
  55:main.c        **** 	unsigned long *data_pointer, word_buffer, adr_buffer, cnt, watch_buf;
  56:main.c        **** 	unsigned char buffer[5], temp_string[9], char_tmp, *char_pointer, device_id;
  57:main.c        **** 
  58:main.c        **** 	// show reset ack
  59:main.c        **** 	io_set_gpio0_port(0);
 1541              	 4 84 0
 1542 0750 E3A00000 		ldr	r0, .L350+24
 1543              		bl	uart0_printf
 1544 0754 E24DD018 		.loc 4 85 0
 1545              		ldr	r0, .L350+28
 1546              		bl	uart0_printf
 1547 0758 EBFFFFFE 		.loc 4 87 0
  60:main.c        **** 	set_syscpreg(0xC3, SYS_IO);
 1548              	, sp, #6
 1549 075c E3A0100D 		.loc 4 86 0
 1550 0760 E3A000C3 		ldr	r0, .L350+32
 1551 0764 EBFFFFFE 		bl	uart0_printf
  61:main.c        **** 
  62:main.c        **** 	// init I²C
  63:main.c        **** 	io_i2c0_speed(0x0063); // 100kHz
 1552              	c 4 87 0
 1553 0768 E3A00063 		mov	r1, sl
 1554 076c EBFFFFFE 		mov	r2, #8
  64:main.c        **** 
  65:main.c        **** 	// enable write-through strategy
  66:main.c        **** 	set_syscpreg(get_syscpreg(SYS_CTRL_0) | (1<<DC_WTHRU), SYS_CTRL_0);
 1555              	v	r0, #67108864
 1556 0770 E3A00006 		bl	long_to_hex_string
 1557 0774 EBFFFFFE 		.loc 4 88 0
 1558 0778 E3A01006 		mov	r0, sl
 1559 077c E3800008 		bl	uart0_printf
 1560 0780 EBFFFFFE 		.loc 4 91 0
  67:main.c        **** 
  68:main.c        **** 	// Check config switches for immediate boot-config
  69:main.c        **** 	function_sel = (int)((~(get_syscpreg(SYS_IO) >> 17)) & 0x0F);
 1561              	0, .L350+36
 1562 0784 E3A0000D 		bl	uart0_printf
 1563 0788 EBFFFFFE 		.loc 4 92 0
  70:main.c        **** 	switch(function_sel){
 1564              	v	r1, sl
 1565 078c E1A008A0 		mov	r2, #8
 1566 0790 E1E00000 		add	r0, sp, #20
 1567 0794 E200000F 		bl	long_to_hex_string
 1568 0798 E3500001 		.loc 4 93 0
 1569 079c 03A04030 		mov	r0, sl
 1570              		bl	uart0_printf
 1571 07a0 028DA006 		.loc 4 95 0
 1572 07a4 028D900F 		ldr	r0, .L350+40
 1573 07a8 0A000028 		bl	uart0_printf
 1574 07ac E3500002 		.loc 4 96 0
 1575 07b0 0A00008A 		bl	print_intro
  71:main.c        **** 		case 1: function_sel = '0'; goto main_menu; break; // auto start application from RAM
  72:main.c        **** 		case 2: function_sel = '3'; goto main_menu; start_app = 1; device_id = 0xA0; break; // auto boot 
  73:main.c        **** 		default: break;
  74:main.c        **** 	}
  75:main.c        **** 
  76:main.c        **** 	// Intro screen
  77:main.c        **** 		uart0_printf("\r\n\r\n\r\n+----------------------------------------------------------------+\r\n"
 1576              	 #15
 1577 07b4 E59F0890 	.LVL136:
 1578 07b8 EBFFFFFE 	.L228:
  78:main.c        **** 	uart0_printf(            "|    <<< STORM Core Processor System - By Stephan Nolting >>>    |\r\n")
 1579              	oc 4 100 0
 1580 07bc E59F088C 		bl	io_uart0_read_byte
 1581 07c0 EBFFFFFE 		mov	r4, r0
  79:main.c        **** 	uart0_printf(            "+----------------------------------------------------------------+\r\n")
 1582              	L137:
 1583 07c4 E59F0888 	.L227:
 1584 07c8 EBFFFFFE 		.loc 4 105 0
  80:main.c        **** 	uart0_printf(            "|         Bootloader for STORM SoC   Version: 20120524-D         |\r\n")
 1585              	v	r0, #13
 1586 07cc E59F0884 		bl	get_syscpreg
 1587 07d0 EBFFFFFE 		tst	r0, #65536
  81:main.c        **** 	uart0_printf(            "|               Contact: stnolting@googlemail.com                |\r\n")
 1588              	oc 4 187 0
 1589 07d4 E59F0880 		moveq	r6, #1
 1590 07d8 EBFFFFFE 	.LVL138:
  82:main.c        **** 	uart0_printf(            "+----------------------------------------------------------------+\r\n\r
 1591              	veq	r5, #160
 1592 07dc E59F087C 	.LVL139:
 1593 07e0 EBFFFFFE 		.loc 4 105 0
  83:main.c        **** 
  84:main.c        **** 	uart0_printf(            " < Welcome to the STORM SoC bootloader console! >\r\n < Select an operat
 1594              	e	.L341
 1595 07e4 E59F0878 	.LVL140:
 1596 07e8 EBFFFFFE 	.L268:
  85:main.c        **** 	uart0_printf(            " < the boot key for immediate application start. >\r\n\r\n");
 1597              	oc 4 194 0
 1598 07ec E59F0874 		mov	r4, #0
 1599 07f0 EBFFFFFE 	.LVL141:
  86:main.c        **** 	uart0_printf(" Load Address: ");
  87:main.c        **** 	long_to_hex_string(JUMPADDRESS, temp_string, 8);
 1600              	oc 4 192 0
 1601 07f4 E28DA006 		ldr	r0, .L350+44
 1602              		bl	uart0_printf
 1603 07f8 E59F086C 	.LVL142:
 1604 07fc EBFFFFFE 		.loc 4 194 0
 1605              		mov	r1, r5
 1606 0800 E1A0100A 		mov	r2, r4
 1607 0804 E3A02008 		mov	r3, #2
 1608 0808 E3A00301 		mov	r0, #114
 1609 080c EBFFFFFE 		str	r4, [sp, #0]
  88:main.c        **** 	uart0_printf(temp_string);
 1610              	0_byte_transfer
 1611 0810 E1A0000A 		.loc 4 195 0
 1612 0814 EBFFFFFE 		mov	r1, r5
  89:main.c        **** 
  90:main.c        **** 	//-----------------------------
  91:main.c        **** 	uart0_printf("\r\n");
 1613              	oc 4 194 0
 1614 0818 E59F0850 		strb	r0, [sp, #15]
 1615 081c EBFFFFFE 		.loc 4 195 0
  92:main.c        **** 	long_to_hex_string(&watch_buf, temp_string, 8);
 1616              	v	r2, #1
 1617 0820 E1A0100A 		mov	r3, #2
 1618 0824 E3A02008 		mov	r0, #114
 1619 0828 E28D0014 		str	r4, [sp, #0]
 1620 082c EBFFFFFE 		bl	io_i2c0_byte_transfer
  93:main.c        **** 	uart0_printf(temp_string);
 1621              	 4 196 0
 1622 0830 E1A0000A 		mov	r2, #2
 1623 0834 EBFFFFFE 		mov	r3, r2
  94:main.c        **** 	//----------------------------------
  95:main.c        **** 	uart0_printf("\n\r");
 1624              	oc 4 195 0
 1625 0838 E59F0834 		strb	r0, [sp, #16]
 1626 083c EBFFFFFE 		.loc 4 196 0
  96:main.c        **** 	print_intro();
 1627              	v	r1, r5
 1628 0840 EBFFFFFE 		mov	r0, #114
 1629 0844 E28D900F 		str	r4, [sp, #0]
 1630              		bl	io_i2c0_byte_transfer
 1631              		.loc 4 197 0
  97:main.c        **** 	while(1){
  98:main.c        **** 
  99:main.c        **** 		// console input
 100:main.c        **** 		function_sel = io_uart0_read_byte();
 1632              	r3, #2
 1633 0848 EBFFFFFE 		.loc 4 196 0
 1634 084c E1A04000 		strb	r0, [sp, #17]
 1635              		.loc 4 197 0
 1636              		mov	r1, r5
 101:main.c        **** 
 102:main.c        **** main_menu:
 103:main.c        **** 
 104:main.c        **** 		// boot button
 105:main.c        **** 		if (((get_syscpreg(SYS_IO) >> 16) & 0x01) == 0){
 1637              	r0, #114
 1638 0850 E3A0000D 		mov	r2, #3
 1639 0854 EBFFFFFE 		str	r4, [sp, #0]
 1640 0858 E3100801 		bl	io_i2c0_byte_transfer
 106:main.c        **** 			function_sel = '3';
 107:main.c        **** 			start_app    = 1;
 108:main.c        **** 			device_id    = 0xA0;
 109:main.c        **** 		}
 110:main.c        **** 
 111:main.c        **** 		// main functions
 112:main.c        **** 		switch(function_sel){
 113:main.c        **** 
 114:main.c        **** 			// boot from RAM (start application)
 115:main.c        **** 			// +++++++++++++++++++++++++++++++++++++++++++++++++++++++++++++++++++++++++++++++++++++++++++++
 116:main.c        **** 			case '0':
 117:main.c        **** 				io_uart0_send_byte((char)function_sel);
 118:main.c        **** 				start_app = 1;
 119:main.c        **** 				break;
 120:main.c        **** 
 121:main.c        **** 			// load ram via UART0
 122:main.c        **** 			// +++++++++++++++++++++++++++++++++++++++++++++++++++++++++++++++++++++++++++++++++++++++++++++
 123:main.c        **** 			case '1':
 124:main.c        **** 				io_uart0_send_byte((char)function_sel);
 125:main.c        **** 				uart0_printf("\r\n\r\nApplication will start automatically after download.\r\n-> Waiting for 's
 126:main.c        **** 				uart0_scanf(buffer,4,0); // get storm master boot record code
 127:main.c        **** 				if((buffer[0] == 'S') && (buffer[1] == 'M') && (buffer[2] == 'B') && (buffer[3] == 'R')){
 128:main.c        **** 					uart0_scanf(buffer,4,0); // get image size
 129:main.c        **** 					adr_buffer = qbytes_to_long(buffer);
 130:main.c        **** 					if (adr_buffer > RAM_SIZE-8){
 131:main.c        **** 						uart0_printf(" ERROR! Program file too big!\r\n\r\n");
 132:main.c        **** 						break;
 133:main.c        **** 					}
 134:main.c        **** //					data_pointer = 0;
 135:main.c        **** 					data_pointer = (volatile unsigned long *)JUMPADDRESS;
 136:main.c        **** 					while(data_pointer != JUMPADDRESS+(adr_buffer+4) ){
 137:main.c        **** 						uart0_scanf(buffer,4,0); // get word
 138:main.c        **** 						watch_buf = qbytes_to_long(buffer);
 139:main.c        **** 						*data_pointer = watch_buf;
 140:main.c        **** //						*data_pointer = qbytes_to_long(buffer); // store memory entry
 141:main.c        **** 						data_pointer = data_pointer + 1;
 142:main.c        **** 					}
 143:main.c        **** 					uart0_printf("\n\r");
 144:main.c        **** 					print_intro();
 145:main.c        **** 					//start_app = 1;
 146:main.c        **** 				}
 147:main.c        **** 				else
 148:main.c        **** 					uart0_printf(" Invalid programming file!\r\n\r\nSelect: ");
 149:main.c        **** 				break;
 150:main.c        **** 
 151:main.c        **** 			// ram memory dump
 152:main.c        **** 			// +++++++++++++++++++++++++++++++++++++++++++++++++++++++++++++++++++++++++++++++++++++++++++++
 153:main.c        **** 			case '2':
 154:main.c        **** 				io_uart0_send_byte((char)function_sel);
 155:main.c        **** 				uart0_printf("\r\n\r\nAbort dumping by pressing any key.\r\nPress any key to continue.\r\n\r\n"
 156:main.c        **** 				while(io_uart0_read_byte() == -1);
 157:main.c        **** 				while(io_uart0_read_byte() != -1);
 158:main.c        **** 				data_pointer = (volatile unsigned long *)JUMPADDRESS;
 159:main.c        **** 				
 160:main.c        **** 				while(data_pointer < JUMPADDRESS +2532){
 161:main.c        **** 					word_buffer = *data_pointer;
 162:main.c        **** 					long_to_hex_string(word_buffer, temp_string,8);
 163:main.c        **** 					i=0;
 164:main.c        **** 					while (temp_string[i] != 0) {
 165:main.c        **** 						io_uart0_send_byte(temp_string[i]);
 166:main.c        **** 						i++;
 167:main.c        **** 					}
 168:main.c        **** 					io_uart0_send_byte(' ');
 169:main.c        **** 					data_pointer++;
 170:main.c        **** 					if(io_uart0_read_byte() != -1){
 171:main.c        **** 						break;
 172:main.c        **** 						uart0_printf("\r\n\r\nAborted!");
 173:main.c        **** 					}
 174:main.c        **** 				}
 175:main.c        **** 				uart0_printf("\r\n\r\nDumping completed.\r\n\r\nSelect: ");
 176:main.c        **** 				break;
 177:main.c        **** 
 178:main.c        **** 			// boot from I²C EEPROM
 179:main.c        **** 			// +++++++++++++++++++++++++++++++++++++++++++++++++++++++++++++++++++++++++++++++++++++++++++++
 180:main.c        **** 			case '3':
 181:main.c        **** 				if(start_app == 0){
 182:main.c        **** 					io_uart0_send_byte((char)function_sel);
 183:main.c        **** 					uart0_printf("\r\n\r\nEnter device address (2x hex_chars, set LSB to '0'): ");
 184:main.c        **** 					uart0_scanf(buffer,2,1);
 185:main.c        **** 					device_id = (unsigned char)hex_string_to_long(buffer, 2);
 186:main.c        **** 					if(device_id == 0){
 187:main.c        **** 						uart0_printf(" Invalid address!\r\n\r\nSelect: ");
 1641              	c 4 198 0
 1642 085c 03A06001 		ldrb	r3, [sp, #15]	@ zero_extendqisi2
 1643              		.loc 4 197 0
 1644 0860 03A050A0 		and	r0, r0, #255
 1645              		.loc 4 198 0
 1646              		cmp	r3, #83
 1647 0864 1A000041 		.loc 4 197 0
 1648              		strb	r0, [sp, #18]
 1649              		.loc 4 198 0
 188:main.c        **** 						break;
 189:main.c        **** 					}
 190:main.c        **** 				}
 191:main.c        **** 
 192:main.c        **** 				uart0_printf("\r\nApplication will start automatically after upload.\r\n-> Loading boot image..
 193:main.c        **** 				cnt = 0;
 194:main.c        **** 				buffer[0] = (unsigned char)io_i2c0_byte_transfer('r',device_id,cnt++,2,0x00);
 1650              	9
 1651 0868 E3A04000 		ldrb	r3, [sp, #16]	@ zero_extendqisi2
 1652              		cmp	r3, #77
 1653              		beq	.L342
 1654 086c E59F0804 	.L269:
 1655 0870 EBFFFFFE 		.loc 4 217 0
 1656              		ldr	r0, .L350+48
 1657              		bl	uart0_printf
 1658 0874 E1A01005 		.loc 4 372 0
 1659 0878 E1A02004 		cmp	r6, #0
 1660 087c E3A03002 		beq	.L228
 1661 0880 E3A00072 	.LVL143:
 1662 0884 E58D4000 	.L246:
 1663 0888 EBFFFFFE 		.loc 4 378 0
 195:main.c        **** 				buffer[1] = (unsigned char)io_i2c0_byte_transfer('r',device_id,cnt++,2,0x00);
 1664              	+52
 1665 088c E1A01005 		bl	uart0_printf
 1666              		.loc 4 379 0
 1667 0890 E5CD000F 		mov	r1, #13
 1668              		mov	r0, #0
 1669 0894 E3A02001 		bl	set_syscpreg
 1670 0898 E3A03002 		.loc 4 382 0
 1671 089c E3A00072 		mov	r0, #6
 1672 08a0 E58D4000 		bl	get_syscpreg
 1673 08a4 EBFFFFFE 		mov	r1, #6
 196:main.c        **** 				buffer[2] = (unsigned char)io_i2c0_byte_transfer('r',device_id,cnt++,2,0x00);
 1674              	0, #8
 1675 08a8 E3A02002 		bl	set_syscpreg
 1676 08ac E1A03002 		.loc 4 383 0
 1677              		mov	r0, #6
 1678 08b0 E5CD0010 		bl	get_syscpreg
 1679              		mov	r1, sl
 1680 08b4 E1A01005 		mov	r2, #8
 1681 08b8 E3A00072 		bl	long_to_hex_string
 1682 08bc E58D4000 		.loc 4 384 0
 1683 08c0 EBFFFFFE 		mov	r0, sl
 197:main.c        **** 				buffer[3] = (unsigned char)io_i2c0_byte_transfer('r',device_id,cnt++,2,0x00);
 1684              	printf
 1685 08c4 E3A03002 		.loc 4 388 0
 1686              		ldr	r0, .L350+56
 1687 08c8 E5CD0011 		bl	uart0_printf
 1688              		.loc 4 392 0
 1689 08cc E1A01005 		ldr	r0, .L350+60
 1690 08d0 E3A00072 		bl	uart0_printf
 1691 08d4 E3A02003 		.loc 4 394 0
 1692 08d8 E58D4000 		mov	r0, #67108864
 1693 08dc EBFFFFFE 		bl	_jump_to_program
 198:main.c        **** 				if((buffer[0] == 'S') && (buffer[1] == 'M') && (buffer[2] == 'B') && (buffer[3] == 'R')){
 1694              	.L310
 1695 08e0 E5DD300F 	.LVL144:
 1696              	.L341:
 1697 08e4 E20000FF 		.loc 4 112 0
 1698              		cmp	r4, #52
 1699 08e8 E3530053 		beq	.L237
 1700              		bgt	.L243
 1701 08ec E5CD0012 		cmp	r4, #49
 1702              		beq	.L234
 1703 08f0 1A000002 		ble	.L343
 1704 08f4 E5DD3010 		cmp	r4, #50
 1705 08f8 E353004D 		beq	.L235
 1706 08fc 0A00006F 		cmp	r4, #51
 1707              		bne	.L231
 199:main.c        **** 					buffer[0] = (unsigned char)io_i2c0_byte_transfer('r',device_id,cnt++,2,0x00);
 200:main.c        **** 					buffer[1] = (unsigned char)io_i2c0_byte_transfer('r',device_id,cnt++,2,0x00);
 201:main.c        **** 					buffer[2] = (unsigned char)io_i2c0_byte_transfer('r',device_id,cnt++,2,0x00);
 202:main.c        **** 					buffer[3] = (unsigned char)io_i2c0_byte_transfer('r',device_id,cnt++,2,0x00);
 203:main.c        **** 					adr_buffer = qbytes_to_long(buffer);
 204:main.c        **** 					data_pointer = 0;
 205:main.c        **** 					while((data_pointer != adr_buffer+4) && (data_pointer < IRAM_SIZE)){
 206:main.c        **** 						buffer[0] = (unsigned char)io_i2c0_byte_transfer('r',device_id,cnt++,2,0x00);
 207:main.c        **** 						buffer[1] = (unsigned char)io_i2c0_byte_transfer('r',device_id,cnt++,2,0x00);
 208:main.c        **** 						buffer[2] = (unsigned char)io_i2c0_byte_transfer('r',device_id,cnt++,2,0x00);
 209:main.c        **** 						buffer[3] = (unsigned char)io_i2c0_byte_transfer('r',device_id,cnt++,2,0x00);
 210:main.c        **** 						*data_pointer = qbytes_to_long(buffer); // store memory entry
 211:main.c        **** 						data_pointer = data_pointer + 1;
 212:main.c        **** 					}
 213:main.c        **** 					uart0_printf(" Upload complete\r\n");
 214:main.c        **** 					start_app = 1;
 215:main.c        **** 				}
 216:main.c        **** 				else
 217:main.c        **** 					uart0_printf(" Invalid boot device or file!\r\n\r\nSelect: ");
 1708              		mov	r0, r4
 1709 0900 E59F0774 		bl	io_uart0_send_byte
 1710 0904 EBFFFFFE 		.loc 4 183 0
 218:main.c        **** 				break;
 219:main.c        **** 
 220:main.c        **** 			// program I²C EEPROM
 221:main.c        **** 			// +++++++++++++++++++++++++++++++++++++++++++++++++++++++++++++++++++++++++++++++++++++++++++++
 222:main.c        **** 			case '4':
 223:main.c        **** 				io_uart0_send_byte((char)function_sel);
 224:main.c        **** 				uart0_printf("\r\n\r\nEnter device address (2x hex_chars, set LSB to '0'): ");
 225:main.c        **** 				uart0_scanf(buffer,2,1);
 226:main.c        **** 				device_id = (unsigned char)hex_string_to_long(buffer, 2);
 227:main.c        **** 				if(device_id == 0){
 228:main.c        **** 					uart0_printf("\r\nInvalid address!\r\n\r\nSelect: ");
 229:main.c        **** 					break;
 230:main.c        **** 				}
 231:main.c        **** 
 232:main.c        **** 				uart0_printf("\r\nData will overwrite RAM content!\r\n-> Waiting for 'storm_program.bin' in byt
 233:main.c        **** 				uart0_scanf(buffer,4,0);
 234:main.c        **** 				if((buffer[0]=='S') && (buffer[1]=='M') && (buffer[2]=='B') && (buffer[3]=='R')){
 235:main.c        **** 					char_pointer = 0; // beginning of RAM
 236:main.c        **** 					*char_pointer++ = 'S'; asm volatile ("NOP");
 237:main.c        **** 					*char_pointer++ = 'M'; asm volatile ("NOP");
 238:main.c        **** 					*char_pointer++ = 'B'; asm volatile ("NOP");
 239:main.c        **** 					*char_pointer++ = 'R'; asm volatile ("NOP");
 240:main.c        **** 					uart0_scanf(buffer,4,0);
 241:main.c        **** 					*char_pointer++ = buffer[0];
 242:main.c        **** 					*char_pointer++ = buffer[1];
 243:main.c        **** 					*char_pointer++ = buffer[2];
 244:main.c        **** 					*char_pointer++ = buffer[3];
 245:main.c        **** 					cnt = qbytes_to_long(buffer);
 246:main.c        **** 					if(cnt > 0xFFFC){
 247:main.c        **** 						uart0_printf(" ERROR! Program file too big!\r\n\r\n");
 248:main.c        **** 						break;
 249:main.c        **** 					}
 250:main.c        **** 
 251:main.c        **** 					for(i=0; i<cnt+4; i++){
 252:main.c        **** 						data = -1;
 253:main.c        **** 						while(data == -1)
 254:main.c        **** 							data = io_uart0_read_byte();
 255:main.c        **** 						*char_pointer++ = (unsigned char)data;
 256:main.c        **** 					}
 257:main.c        **** 					uart0_printf(" Download completed\r\n");
 258:main.c        **** 
 259:main.c        **** 					uart0_printf("Writing buffer to i2c EEPROM...");
 260:main.c        **** 					char_pointer = 0; // beginning of RAM
 261:main.c        **** 					for(i=0; i<cnt+12; i++){
 262:main.c        **** 						char_tmp = *char_pointer++;
 263:main.c        **** 						while(io_i2c0_byte_transfer('w', device_id, i, 2, char_tmp) != 0);
 264:main.c        **** 					}
 265:main.c        **** 					uart0_printf(" Completed\r\n\r\n");
 266:main.c        **** 				}
 267:main.c        **** 				else
 268:main.c        **** 					uart0_printf(" Invalid boot device or file!\r\n\r\n");
 269:main.c        **** 				uart0_printf("Select: ");
 270:main.c        **** 				break;
 271:main.c        **** 
 272:main.c        **** 			// show content of I2C EEPROM
 273:main.c        **** 			// +++++++++++++++++++++++++++++++++++++++++++++++++++++++++++++++++++++++++++++++++++++++++++++
 274:main.c        **** 			case '5':
 275:main.c        **** 				io_uart0_send_byte((char)function_sel);
 276:main.c        **** 				uart0_printf("\r\n\r\nEnter device address (2 hex-chars, set LSB to '0'): ");
 277:main.c        **** 				uart0_scanf(buffer,2,1);
 278:main.c        **** 				device_id = (unsigned char)hex_string_to_long(buffer, 2);
 279:main.c        **** 				if(device_id == 0){
 280:main.c        **** 					uart0_printf(" Invalid address!\r\n\r\nSelect: ");
 281:main.c        **** 					break;
 282:main.c        **** 				}
 283:main.c        **** 				uart0_printf("\r\n\r\nAbort dumping by pressing any key. If no data is shown,\r\n");
 284:main.c        **** 				uart0_printf("the selected device is not responding. Press any key to continue.\r\n\r\n");
 285:main.c        **** 				while(io_uart0_read_byte() == -1);
 286:main.c        **** 				while(io_uart0_read_byte() != -1);
 287:main.c        **** 				for(i=0; i<0xFFFF; i++){
 288:main.c        **** 						data = -1;
 289:main.c        **** 						while(data < 0){
 290:main.c        **** 							data = io_i2c0_byte_transfer('r', device_id, i, 2, 0x00);
 291:main.c        **** 							if(io_uart0_read_byte() != -1){
 292:main.c        **** 								function_sel = 'X';
 293:main.c        **** 								break;
 294:main.c        **** 							}
 295:main.c        **** 						}
 296:main.c        **** 						if(function_sel == 'X'){
 297:main.c        **** 							uart0_printf("\r\n\r\nAborted!");
 298:main.c        **** 							break;
 299:main.c        **** 						}
 300:main.c        **** 						io_uart0_send_byte(data);
 301:main.c        **** 				}
 302:main.c        **** 				uart0_printf("\r\n\r\nDumping completed.\r\n\r\nSelect: ");
 303:main.c        **** 				break;
 304:main.c        **** 
 305:main.c        **** 			// Automatic boot configuration
 306:main.c        **** 			// +++++++++++++++++++++++++++++++++++++++++++++++++++++++++++++++++++++++++++++++++++++++++++++
 307:main.c        **** 			case 'a':
 308:main.c        **** 				io_uart0_send_byte((char)function_sel);
 309:main.c        **** 				uart0_printf("\r\n\r\nAutomatic boot configuration for power-up:\r\n");
 310:main.c        **** 				uart0_printf("[3210] configuration DIP switch\r\n 0000 - Start bootloader console\r\n 0001 - Au
 311:main.c        **** 				uart0_printf(" 0010 - Automatic boot from I2C EEPROM (Address 0xA0)\r\n\r\nSelect: ");
 312:main.c        **** 				break;
 313:main.c        **** 
 314:main.c        **** 			// Help screen
 315:main.c        **** 			// +++++++++++++++++++++++++++++++++++++++++++++++++++++++++++++++++++++++++++++++++++++++++++++
 316:main.c        **** 			case 'h':
 317:main.c        **** 				io_uart0_send_byte((char)function_sel);
 318:main.c        **** 				uart0_printf("\r\n\r\nSTORM SoC bootloader\r\n");
 319:main.c        **** 				uart0_printf("'0': Execute program in RAM.\r\n");
 320:main.c        **** 				uart0_printf("'1': Write 'storm_program.bin' to the core's RAM via UART.\r\n");
 321:main.c        **** 				uart0_printf("'2': Print current content of complete core RAM.\r\n");
 322:main.c        **** 				uart0_printf("'3': Load boot image from EEPROM and start application.\r\n");
 323:main.c        **** 				uart0_printf("'4': Write 'storm_program.bin' to I2C EEPROM via UART.\r\n");
 324:main.c        **** 				uart0_printf("'5': Print content of I2C EEPROM.\r\n");
 325:main.c        **** 				uart0_printf("'a': Show DIP switch configurations for automatic boot.\r\n");
 326:main.c        **** 				uart0_printf("'h': Show this screen.\r\n");
 327:main.c        **** 				uart0_printf("'r': Reset system.\r\n\r\n");
 328:main.c        **** 				uart0_printf("Boot EEPROM: 24xxnnn (like 24AA64), 7 bit address + dont-care bit,\r\n");
 329:main.c        **** 				uart0_printf("connected to I2C_CONTROLLER_0, operating frequency is 100kHz,\r\n");
 330:main.c        **** 				uart0_printf("maximum EEPROM size = 65536 byte => 16 bit addresses,\r\n");
 331:main.c        **** 				uart0_printf("fixed boot device address: 0xA0\r\n\r\n");
 332:main.c        **** 				uart0_printf("Terminal setup: 9600 baud, 8 data bits, no parity, 1 stop bit\r\n\r\n");
 333:main.c        **** 				uart0_printf("For more information see the STORM Core / STORM SoC datasheet\r\n");
 334:main.c        **** 				uart0_printf("http://opencores.org/project,storm_core\r\n");
 335:main.c        **** 				uart0_printf("http://opencores.org/project,storm_soc\r\n");
 336:main.c        **** 				uart0_printf("Contact: stnolting@googlemail.com\r\n");
 337:main.c        **** 				uart0_printf("(c) 2012 by Stephan Nolting\r\n\r\nSelect: ");
 338:main.c        **** 				break;
 339:main.c        **** 
 340:main.c        **** 			// back to the future
 341:main.c        **** 			// +++++++++++++++++++++++++++++++++++++++++++++++++++++++++++++++++++++++++++++++++++++++++++++
 342:main.c        **** 			case 'f':
 343:main.c        **** 				io_uart0_send_byte((char)function_sel);
 344:main.c        **** 				uart0_printf("\r\n\r\nWe'll send you back - to the future!.\r\n\r\n");
 345:main.c        **** 				uart0_printf(" - Doctor Emmet L. Brown\r\n\r\nSelect: ");
 346:main.c        **** 				break;
 347:main.c        **** 
 348:main.c        **** 			// restart system
 349:main.c        **** 			// +++++++++++++++++++++++++++++++++++++++++++++++++++++++++++++++++++++++++++++++++++++++++++++
 350:main.c        **** 			case 'r':
 351:main.c        **** 				io_uart0_send_byte((char)function_sel);
 352:main.c        **** 				asm volatile ("mov r0,     #0x0FF00000");
 353:main.c        **** 				asm volatile ("add pc, r0, #0xF0000000"); // jump to bootloader
 354:main.c        **** 				while(1);
 355:main.c        **** 				break;
 356:main.c        **** 
 357:main.c        **** 			// no input
 358:main.c        **** 			// +++++++++++++++++++++++++++++++++++++++++++++++++++++++++++++++++++++++++++++++++++++++++++++
 359:main.c        **** 			case -1:
 360:main.c        **** 				break;
 361:main.c        **** 
 362:main.c        **** 			// invalid selection
 363:main.c        **** 			// +++++++++++++++++++++++++++++++++++++++++++++++++++++++++++++++++++++++++++++++++++++++++++++
 364:main.c        **** 			default:
 365:main.c        **** 				io_uart0_send_byte((char)function_sel);
 366:main.c        **** 				uart0_printf(" Invalid operation!\r\nTry again: ");
 367:main.c        **** 				break;
 368:main.c        **** 
 369:main.c        **** 		}
 370:main.c        **** 
 371:main.c        **** 		// start application request
 372:main.c        **** 		if(start_app != 0)
 1711              	r	r0, .L350+64
 1712 0908 E3560000 		bl	uart0_printf
 1713 090c 0AFFFFCD 		.loc 4 184 0
 1714              		mov	r0, r9
 1715              		mov	r1, #2
 373:main.c        **** 			break;
 374:main.c        **** 
 375:main.c        **** 	}
 376:main.c        **** 
 377:main.c        **** 	// start application
 378:main.c        **** 	uart0_printf("\r\n\r\n-> Starting application...\r\n\r\n");
 1716              	r2, #1
 1717 0910 E59F0768 		bl	uart0_scanf
 1718 0914 EBFFFFFE 		.loc 4 185 0
 379:main.c        **** 	set_syscpreg(0x00, SYS_IO);  // set System IO ouputs to low.
 1719              	v	r1, #2
 1720 0918 E3A0100D 		mov	r0, r9
 1721 091c E3A00000 		bl	hex_string_to_long
 1722 0920 EBFFFFFE 		.loc 4 186 0
 380:main.c        **** 
 381:main.c        **** 	// disable write-through strategy
 382:main.c        **** 	set_syscpreg(get_syscpreg(SYS_CTRL_0) & ~(1<<DC_WTHRU), SYS_CTRL_0);
 1723              	s	r1, r0, #255
 1724 0924 E3A00006 	.LVL145:
 1725 0928 EBFFFFFE 		movne	r5, r1
 1726 092c E3A01006 		movne	r6, #0
 1727 0930 E3C00008 		bne	.L268
 1728 0934 EBFFFFFE 	.LVL146:
 383:main.c        **** 	long_to_hex_string(get_syscpreg(SYS_CTRL_0), temp_string, 8);
 1729              	
 1730 0938 E3A00006 		.loc 4 280 0
 1731 093c EBFFFFFE 		ldr	r0, .L350+68
 1732 0940 E1A0100A 		bl	uart0_printf
 1733 0944 E3A02008 	.LVL147:
 1734 0948 EBFFFFFE 		b	.L228
 384:main.c        **** 	uart0_printf(temp_string);
 1735              	48:
 1736 094c E1A0000A 	.L340:
 1737 0950 EBFFFFFE 		.loc 4 70 0
 385:main.c        **** 	// clear D-cache
 386:main.c        **** 	
 387:main.c        **** 	//set_syscpreg(get_syscpreg(SYS_CTRL_0) | ~(1<<DC_CLEAR), SYS_CTRL_0);
 388:main.c        **** 	uart0_printf("\r\n\r\n-Clear D$\r\n\r\n");
 1738              	v	r4, #51
 1739 0954 E59F0728 		add	sl, sp, #6
 1740 0958 EBFFFFFE 		add	r9, sp, #15
 389:main.c        **** 	// clear I-cache
 390:main.c        **** 	
 391:main.c        **** 	//set_syscpreg(get_syscpreg(SYS_CTRL_0) | ~(1<<IC_CLEAR), SYS_CTRL_0);
 392:main.c        ****     uart0_printf("\r\n\r\n-Clear I$\r\n\r\n");
 1741              	.L227
 1742 095c E59F0724 	.LVL149:
 1743 0960 EBFFFFFE 	.L243:
 393:main.c        **** 	// jump to application
 394:main.c        **** 	_jump_to_program(JUMPADDRESS);
 1744              	oc 4 112 0
 1745 0964 E3A00301 		cmp	r4, #102
 1746 0968 EBFFFFFE 		beq	.L240
 1747              		ble	.L344
 1748 096c EAFFFFFE 		cmp	r4, #104
 1749              		beq	.L241
 1750              		cmp	r4, #114
 1751              		bne	.L231
 1752 0970 E3540034 		.loc 4 351 0
 1753 0974 0A000029 		mov	r0, r4
 1754 0978 CA00001C 		bl	io_uart0_send_byte
 1755 097c E3540031 		.loc 4 352 0
 1756 0980 0A000036 		mov r0,     #0x0FF00000
 1757 0984 DA000098 		.loc 4 353 0
 1758 0988 E3540032 		add pc, r0, #0xF0000000
 1759 098c 0A0000A2 	.L309:
 1760 0990 E3540033 		b	.L309
 1761 0994 1A000098 	.L237:
 1762              		.loc 4 223 0
 1763 0998 E1A00004 		mov	r0, r4
 1764 099c EBFFFFFE 		bl	io_uart0_send_byte
 1765              		.loc 4 224 0
 1766 09a0 E59F06E4 		ldr	r0, .L350+64
 1767 09a4 EBFFFFFE 		bl	uart0_printf
 1768              		.loc 4 225 0
 1769 09a8 E1A00009 		mov	r0, r9
 1770 09ac E3A01002 		mov	r1, #2
 1771 09b0 E3A02001 		mov	r2, #1
 1772 09b4 EBFFFFFE 		bl	uart0_scanf
 1773              		.loc 4 226 0
 1774 09b8 E3A01002 		mov	r0, r9
 1775 09bc E1A00009 		mov	r1, #2
 1776 09c0 EBFFFFFE 		bl	hex_string_to_long
 1777              		.loc 4 227 0
 1778 09c4 E21010FF 		ands	r8, r0, #255
 1779              		bne	.L278
 1780 09c8 11A05001 		.loc 4 228 0
 1781 09cc 13A06000 		ldr	r0, .L350+72
 1782 09d0 1AFFFFA4 		bl	uart0_printf
 1783              		b	.L228
 1784              	.L234:
 1785              		.loc 4 124 0
 1786 09d4 E59F06B4 		mov	r0, r4
 1787 09d8 EBFFFFFE 		bl	io_uart0_send_byte
 1788              		.loc 4 125 0
 1789 09dc EAFFFF99 		ldr	r0, .L350+76
 1790              		bl	uart0_printf
 1791              		.loc 4 126 0
 1792              		mov	r0, r9
 1793 09e0 E3A04033 		mov	r1, #4
 1794 09e4 E28DA006 		mov	r2, #0
 1795 09e8 E28D900F 		bl	uart0_scanf
 1796 09ec EAFFFF97 		.loc 4 127 0
 1797              		ldrb	r3, [sp, #15]	@ zero_extendqisi2
 1798              		cmp	r3, #83
 1799              		bne	.L247
 1800 09f0 E3540066 		ldrb	r3, [sp, #16]	@ zero_extendqisi2
 1801 09f4 0A00002A 		cmp	r3, #77
 1802 09f8 DA0000AD 		beq	.L345
 1803 09fc E3540068 	.L247:
 1804 0a00 0A00010F 		.loc 4 148 0
 1805 0a04 E3540072 		ldr	r0, .L350+80
 1806 0a08 1A00007B 		bl	uart0_printf
 1807              		b	.L228
 1808 0a0c E1A00004 	.L240:
 1809 0a10 EBFFFFFE 		.loc 4 343 0
 1810              		mov	r0, r4
 1811 0a14 E3A006FF 		bl	io_uart0_send_byte
 1812              		.loc 4 344 0
 1813 0a18 E280F20F 		ldr	r0, .L350+84
 1814              		bl	uart0_printf
 1815 0a1c EAFFFFFE 		.loc 4 345 0
 1816              		ldr	r0, .L350+88
 1817              		bl	uart0_printf
 1818 0a20 E1A00004 		b	.L228
 1819 0a24 EBFFFFFE 	.LVL150:
 1820              	.L342:
 1821 0a28 E59F065C 		.loc 4 198 0
 1822 0a2c EBFFFFFE 		ldrb	r3, [sp, #17]	@ zero_extendqisi2
 1823              		cmp	r3, #66
 1824 0a30 E1A00009 		bne	.L269
 1825 0a34 E3A01002 		cmp	r0, #82
 1826 0a38 E3A02001 		bne	.L269
 1827 0a3c EBFFFFFE 		.loc 4 199 0
 1828              		mov	r1, r5
 1829 0a40 E1A00009 		mov	r2, #4
 1830 0a44 E3A01002 		sub	r3, r3, #64
 1831 0a48 EBFFFFFE 		add	r0, r0, #32
 1832              		str	r4, [sp, #0]
 1833 0a4c E21080FF 		bl	io_i2c0_byte_transfer
 1834 0a50 1A0000A4 		.loc 4 200 0
 1835              		mov	r1, r5
 1836 0a54 E59F0638 		.loc 4 199 0
 1837 0a58 EBFFFFFE 		strb	r0, [sp, #15]
 1838 0a5c EAFFFF79 		.loc 4 200 0
 1839              		mov	r2, #5
 1840              		mov	r3, #2
 1841 0a60 E1A00004 		mov	r0, #114
 1842 0a64 EBFFFFFE 		str	r4, [sp, #0]
 1843              		bl	io_i2c0_byte_transfer
 1844 0a68 E59F0628 		.loc 4 201 0
 1845 0a6c EBFFFFFE 		mov	r1, r5
 1846              		.loc 4 200 0
 1847 0a70 E1A00009 		strb	r0, [sp, #16]
 1848 0a74 E3A01004 		.loc 4 201 0
 1849 0a78 E3A02000 		mov	r2, #6
 1850 0a7c EBFFFFFE 		mov	r3, #2
 1851              		mov	r0, #114
 1852 0a80 E5DD300F 		str	r4, [sp, #0]
 1853 0a84 E3530053 		bl	io_i2c0_byte_transfer
 1854 0a88 1A000002 		.loc 4 202 0
 1855 0a8c E5DD3010 		mov	r1, r5
 1856 0a90 E353004D 		.loc 4 201 0
 1857 0a94 0A000115 		strb	r0, [sp, #17]
 1858              		.loc 4 202 0
 1859              		mov	r2, #7
 1860 0a98 E59F05FC 		mov	r3, #2
 1861 0a9c EBFFFFFE 		mov	r0, #114
 1862 0aa0 EAFFFF68 		str	r4, [sp, #0]
 1863              		bl	io_i2c0_byte_transfer
 1864              		strb	r0, [sp, #18]
 1865 0aa4 E1A00004 		.loc 4 203 0
 1866 0aa8 EBFFFFFE 		mov	r0, r9
 1867              		bl	qbytes_to_long
 1868 0aac E59F05EC 		.loc 4 205 0
 1869 0ab0 EBFFFFFE 		adds	r7, r0, #4
 1870              		beq	.L274
 1871 0ab4 E59F05E8 	.LVL151:
 1872 0ab8 EBFFFFFE 		mov	r6, r4
 1873 0abc EAFFFF61 	.LVL152:
 1874              	.LVL153:
 1875              	.L276:
 1876              		.loc 4 206 0
 1877 0ac0 E5DD3011 		add	r2, r4, #8
 1878 0ac4 E3530042 		mov	r1, r5
 1879 0ac8 1AFFFF8C 		mov	r3, #2
 1880 0acc E3500052 		mov	r0, #114
 1881 0ad0 1AFFFF8A 		str	r6, [sp, #0]
 1882              		bl	io_i2c0_byte_transfer
 1883 0ad4 E1A01005 		.loc 4 207 0
 1884 0ad8 E3A02004 		add	r2, r4, #9
 1885 0adc E2433040 		.loc 4 206 0
 1886 0ae0 E2800020 		strb	r0, [sp, #15]
 1887 0ae4 E58D4000 		.loc 4 207 0
 1888 0ae8 EBFFFFFE 		mov	r1, r5
 1889              		mov	r3, #2
 1890 0aec E1A01005 		mov	r0, #114
 1891              		str	r6, [sp, #0]
 1892 0af0 E5CD000F 		bl	io_i2c0_byte_transfer
 1893              		.loc 4 208 0
 1894 0af4 E3A02005 		add	r2, r4, #10
 1895 0af8 E3A03002 		.loc 4 207 0
 1896 0afc E3A00072 		strb	r0, [sp, #16]
 1897 0b00 E58D4000 		.loc 4 208 0
 1898 0b04 EBFFFFFE 		mov	r1, r5
 1899              		mov	r3, #2
 1900 0b08 E1A01005 		mov	r0, #114
 1901              		str	r6, [sp, #0]
 1902 0b0c E5CD0010 		bl	io_i2c0_byte_transfer
 1903              		.loc 4 209 0
 1904 0b10 E3A02006 		add	r2, r4, #11
 1905 0b14 E3A03002 		.loc 4 208 0
 1906 0b18 E3A00072 		strb	r0, [sp, #17]
 1907 0b1c E58D4000 		.loc 4 209 0
 1908 0b20 EBFFFFFE 		mov	r1, r5
 1909              		mov	r3, #2
 1910 0b24 E1A01005 		mov	r0, #114
 1911              		str	r6, [sp, #0]
 1912 0b28 E5CD0011 		bl	io_i2c0_byte_transfer
 1913              		strb	r0, [sp, #18]
 1914 0b2c E3A02007 		.loc 4 210 0
 1915 0b30 E3A03002 		mov	r0, r9
 1916 0b34 E3A00072 		bl	qbytes_to_long
 1917 0b38 E58D4000 		str	r0, [r4], #4
 1918 0b3c EBFFFFFE 		.loc 4 205 0
 1919 0b40 E5CD0012 		cmp	r4, r7
 1920              		cmpne	r4, #32768
 1921 0b44 E1A00009 		bcc	.L276
 1922 0b48 EBFFFFFE 	.LVL154:
 1923              	.L274:
 1924 0b4c E2907004 		.loc 4 213 0
 1925 0b50 0A000022 		ldr	r0, .L350+92
 1926              		bl	uart0_printf
 1927 0b54 E1A06004 		b	.L246
 1928              	.LVL155:
 1929              	.L343:
 1930              		.loc 4 112 0
 1931              		cmn	r4, #1
 1932 0b58 E2842008 		beq	.L228
 1933 0b5c E1A01005 		cmp	r4, #48
 1934 0b60 E3A03002 		beq	.L346
 1935 0b64 E3A00072 	.L231:
 1936 0b68 E58D6000 		.loc 4 365 0
 1937 0b6c EBFFFFFE 		and	r0, r4, #255
 1938              		bl	io_uart0_send_byte
 1939 0b70 E2842009 		.loc 4 366 0
 1940              		ldr	r0, .L350+96
 1941 0b74 E5CD000F 		bl	uart0_printf
 1942              		b	.L228
 1943 0b78 E1A01005 	.L346:
 1944 0b7c E3A03002 		.loc 4 117 0
 1945 0b80 E3A00072 		mov	r0, r4
 1946 0b84 E58D6000 		bl	io_uart0_send_byte
 1947 0b88 EBFFFFFE 		b	.L246
 1948              	.L235:
 1949 0b8c E284200A 		.loc 4 154 0
 1950              		mov	r0, r4
 1951 0b90 E5CD0010 		bl	io_uart0_send_byte
 1952              		.loc 4 155 0
 1953 0b94 E1A01005 		ldr	r0, .L350+100
 1954 0b98 E3A03002 		bl	uart0_printf
 1955 0b9c E3A00072 	.L257:
 1956 0ba0 E58D6000 		.loc 4 156 0
 1957 0ba4 EBFFFFFE 		bl	io_uart0_read_byte
 1958              		cmn	r0, #1
 1959 0ba8 E284200B 		beq	.L257
 1960              	.L317:
 1961 0bac E5CD0011 		.loc 4 157 0
 1962              		bl	io_uart0_read_byte
 1963 0bb0 E1A01005 		cmn	r0, #1
 1964 0bb4 E3A03002 		bne	.L317
 1965 0bb8 E3A00072 		mov	r5, #67108864
 1966 0bbc E58D6000 	.LVL156:
 1967 0bc0 EBFFFFFE 	.LVL157:
 1968 0bc4 E5CD0012 	.L260:
 1969              		.loc 4 162 0
 1970 0bc8 E1A00009 		ldr	r0, [r5, #0]
 1971 0bcc EBFFFFFE 		mov	r1, sl
 1972 0bd0 E4840004 		mov	r2, #8
 1973              		bl	long_to_hex_string
 1974 0bd4 E1540007 		.loc 4 164 0
 1975 0bd8 13540902 		ldrb	r0, [sp, #6]	@ zero_extendqisi2
 1976 0bdc 3AFFFFDD 		cmp	r0, #0
 1977              		beq	.L261
 1978              		mov	r4, #0
 1979              	.LVL158:
 1980 0be0 E59F04C0 	.L263:
 1981 0be4 EBFFFFFE 		.loc 4 166 0
 1982 0be8 EAFFFF48 		add	r4, r4, #1
 1983              		.loc 4 165 0
 1984              		bl	io_uart0_send_byte
 1985              		.loc 4 164 0
 1986 0bec E3740001 		ldrb	r0, [r4, sl]	@ zero_extendqisi2
 1987 0bf0 0AFFFF14 		cmp	r0, #0
 1988 0bf4 E3540030 		bne	.L263
 1989 0bf8 0A000004 	.LVL159:
 1990              	.L261:
 1991              		.loc 4 168 0
 1992 0bfc E20400FF 		mov	r0, #32
 1993 0c00 EBFFFFFE 		bl	io_uart0_send_byte
 1994              		.loc 4 170 0
 1995 0c04 E59F04A0 		bl	io_uart0_read_byte
 1996 0c08 EBFFFFFE 		cmn	r0, #1
 1997 0c0c EAFFFF0D 		bne	.L308
 1998              		.loc 4 160 0
 1999              		mov	r3, #67108864
 2000 0c10 E1A00004 		add	r3, r3, #2528
 2001 0c14 EBFFFFFE 		.loc 4 169 0
 2002 0c18 EAFFFF3C 		add	r5, r5, #4
 2003              		.loc 4 160 0
 2004              		add	r3, r3, #4
 2005 0c1c E1A00004 		cmp	r5, r3
 2006 0c20 EBFFFFFE 		bne	.L260
 2007              	.LVL160:
 2008 0c24 E59F0484 	.L308:
 2009 0c28 EBFFFFFE 		.loc 4 302 0
 2010              		ldr	r0, .L350+104
 2011              		bl	uart0_printf
 2012 0c2c EBFFFFFE 		b	.L228
 2013 0c30 E3700001 	.LVL161:
 2014 0c34 0AFFFFFC 	.L344:
 2015              		.loc 4 112 0
 2016              		cmp	r4, #53
 2017 0c38 EBFFFFFE 		beq	.L238
 2018 0c3c E3700001 		cmp	r4, #97
 2019 0c40 1AFFFFFC 		bne	.L231
 2020 0c44 E3A05301 		.loc 4 308 0
 2021              		mov	r0, r4
 2022              		bl	io_uart0_send_byte
 2023              		.loc 4 309 0
 2024              		ldr	r0, .L350+108
 2025 0c48 E5950000 		bl	uart0_printf
 2026 0c4c E1A0100A 		.loc 4 310 0
 2027 0c50 E3A02008 		ldr	r0, .L350+112
 2028 0c54 EBFFFFFE 		bl	uart0_printf
 2029              		.loc 4 311 0
 2030 0c58 E5DD0006 		ldr	r0, .L350+116
 2031 0c5c E3500000 		bl	uart0_printf
 2032 0c60 0A000005 		b	.L228
 2033 0c64 E3A04000 	.L278:
 2034              		.loc 4 232 0
 2035              		ldr	r0, .L350+120
 2036              		bl	uart0_printf
 2037 0c68 E2844001 		.loc 4 233 0
 2038              		mov	r0, r9
 2039 0c6c EBFFFFFE 		mov	r1, #4
 2040              		mov	r2, #0
 2041 0c70 E7D4000A 		bl	uart0_scanf
 2042 0c74 E3500000 		.loc 4 234 0
 2043 0c78 1AFFFFFA 		ldrb	r3, [sp, #15]	@ zero_extendqisi2
 2044              		cmp	r3, #83
 2045              		bne	.L280
 2046              		ldrb	r2, [sp, #16]	@ zero_extendqisi2
 2047 0c7c E3A00020 		cmp	r2, #77
 2048 0c80 EBFFFFFE 		beq	.L347
 2049              	.L280:
 2050 0c84 EBFFFFFE 		.loc 4 268 0
 2051 0c88 E3700001 		ldr	r0, .L350+124
 2052 0c8c 1A000005 		bl	uart0_printf
 2053              	.LVL162:
 2054 0c90 E3A03301 	.L297:
 2055 0c94 E2833E9E 		.loc 4 269 0
 2056              		ldr	r0, .L350+128
 2057 0c98 E2855004 		bl	uart0_printf
 2058              		b	.L228
 2059 0c9c E2833004 	.LVL163:
 2060 0ca0 E1550003 	.L347:
 2061 0ca4 1AFFFFE7 		.loc 4 234 0
 2062              		ldrb	r1, [sp, #17]	@ zero_extendqisi2
 2063              		cmp	r1, #66
 2064              		bne	.L280
 2065 0ca8 E59F0404 		ldrb	r0, [sp, #18]	@ zero_extendqisi2
 2066 0cac EBFFFFFE 		cmp	r0, #82
 2067 0cb0 EAFFFEE4 		bne	.L280
 2068              		.loc 4 236 0
 2069              		mov	r4, #0
 2070              	.LVL164:
 2071 0cb4 E3540035 		strb	r3, [r4, #0]
 2072 0cb8 0A0000AF 		NOP
 2073 0cbc E3540061 		.loc 4 237 0
 2074 0cc0 1AFFFFCD 		strb	r2, [r4, #1]
 2075              		NOP
 2076 0cc4 E1A00004 		.loc 4 238 0
 2077 0cc8 EBFFFFFE 		strb	r1, [r4, #2]
 2078              		NOP
 2079 0ccc E59F03E4 		.loc 4 239 0
 2080 0cd0 EBFFFFFE 		strb	r0, [r4, #3]
 2081              		NOP
 2082 0cd4 E59F03E0 		.loc 4 240 0
 2083 0cd8 EBFFFFFE 		sub	r1, r1, #62
 2084              		mov	r0, r9
 2085 0cdc E59F03DC 		mov	r2, r4
 2086 0ce0 EBFFFFFE 		bl	uart0_scanf
 2087 0ce4 EAFFFED7 		.loc 4 241 0
 2088              		ldrb	r3, [sp, #15]	@ zero_extendqisi2
 2089              		strb	r3, [r4, #4]
 2090 0ce8 E59F03D4 		.loc 4 242 0
 2091 0cec EBFFFFFE 		ldrb	r2, [sp, #16]	@ zero_extendqisi2
 2092              		strb	r2, [r4, #5]
 2093 0cf0 E1A00009 		.loc 4 243 0
 2094 0cf4 E3A01004 		ldrb	r3, [sp, #17]	@ zero_extendqisi2
 2095 0cf8 E3A02000 		strb	r3, [r4, #6]
 2096 0cfc EBFFFFFE 		.loc 4 244 0
 2097              		ldrb	r2, [sp, #18]	@ zero_extendqisi2
 2098 0d00 E5DD300F 		.loc 4 245 0
 2099 0d04 E3530053 		mov	r0, r9
 2100 0d08 1A000002 		.loc 4 244 0
 2101 0d0c E5DD2010 		strb	r2, [r4, #7]
 2102 0d10 E352004D 		.loc 4 245 0
 2103 0d14 0A000004 		bl	qbytes_to_long
 2104              		.loc 4 246 0
 2105              		mov	r3, #65280
 2106 0d18 E59F03A8 		add	r3, r3, #252
 2107 0d1c EBFFFFFE 	.LVL165:
 2108              		cmp	r0, r3
 2109              	.LVL166:
 2110              		.loc 4 245 0
 2111 0d20 E59F03A4 		mov	r5, r0
 2112 0d24 EBFFFFFE 	.LVL167:
 2113 0d28 EAFFFEC6 		.loc 4 246 0
 2114              		bhi	.L285
 2115              		.loc 4 251 0
 2116              		cmn	r0, #4
 2117 0d2c E5DD1011 	.LVL168:
 2118 0d30 E3510042 		addne	r4, r4, #8
 2119 0d34 1AFFFFF7 		addne	r6, r0, #11
 2120 0d38 E5DD0012 	.LVL169:
 2121 0d3c E3500052 		beq	.L287
 2122 0d40 1AFFFFF4 	.LVL170:
 2123              	.L338:
 2124 0d44 E3A04000 		.loc 4 254 0
 2125              		bl	io_uart0_read_byte
 2126 0d48 E5C43000 	.LVL171:
 2127 0d4c E1A00000 	.LVL172:
 2128              		.loc 4 253 0
 2129 0d50 E5C42001 		cmn	r0, #1
 2130 0d54 E1A00000 		beq	.L338
 2131              		.loc 4 251 0
 2132 0d58 E5C41002 		cmp	r6, r4
 2133 0d5c E1A00000 	.LVL173:
 2134              		.loc 4 255 0
 2135 0d60 E5C40003 		strb	r0, [r4, #0]
 2136 0d64 E1A00000 		add	r4, r4, #1
 2137              		.loc 4 251 0
 2138 0d68 E241103E 		bne	.L338
 2139 0d6c E1A00009 	.LVL174:
 2140 0d70 E1A02004 	.L287:
 2141 0d74 EBFFFFFE 		.loc 4 257 0
 2142              		ldr	r0, .L350+132
 2143 0d78 E5DD300F 	.LVL175:
 2144 0d7c E5C43004 		bl	uart0_printf
 2145              		.loc 4 259 0
 2146 0d80 E5DD2010 		ldr	r0, .L350+136
 2147 0d84 E5C42005 		bl	uart0_printf
 2148              		.loc 4 261 0
 2149 0d88 E5DD3011 		cmn	r5, #12
 2150 0d8c E5C43006 		beq	.L292
 2151              		mov	r4, #0
 2152 0d90 E5DD2012 	.LVL176:
 2153              		add	r7, r5, #12
 2154 0d94 E1A00009 		mov	r6, r4
 2155              	.L294:
 2156 0d98 E5C42007 		ldrb	r5, [r4, #0]	@ zero_extendqisi2
 2157              	.LVL177:
 2158 0d9c EBFFFFFE 	.L295:
 2159              		.loc 4 263 0
 2160 0da0 E3A03CFF 		mov	r0, #119
 2161 0da4 E28330FC 		mov	r1, r8
 2162              		mov	r2, r6
 2163 0da8 E1500003 		mov	r3, #2
 2164              		str	r5, [sp, #0]
 2165              		bl	io_i2c0_byte_transfer
 2166 0dac E1A05000 		cmp	r0, #0
 2167              		bne	.L295
 2168              		.loc 4 261 0
 2169 0db0 8A00009B 		add	r4, r4, #1
 2170              		cmp	r4, r7
 2171 0db4 E3700004 		mov	r6, r4
 2172              		bne	.L294
 2173 0db8 12844008 	.LVL178:
 2174 0dbc 1280600B 	.L292:
 2175              		.loc 4 265 0
 2176 0dc0 0A000006 		ldr	r0, .L350+140
 2177              		bl	uart0_printf
 2178              		b	.L297
 2179              	.LVL179:
 2180 0dc4 EBFFFFFE 	.L241:
 2181              		.loc 4 317 0
 2182              		mov	r0, r4
 2183              		bl	io_uart0_send_byte
 2184 0dc8 E3700001 		.loc 4 318 0
 2185 0dcc 0AFFFFFC 		ldr	r0, .L350+144
 2186              		bl	uart0_printf
 2187 0dd0 E1560004 		.loc 4 319 0
 2188              		ldr	r0, .L350+148
 2189              		bl	uart0_printf
 2190 0dd4 E5C40000 		.loc 4 320 0
 2191 0dd8 E2844001 		ldr	r0, .L350+152
 2192              		bl	uart0_printf
 2193 0ddc 1AFFFFF8 		.loc 4 321 0
 2194              		ldr	r0, .L350+156
 2195              		bl	uart0_printf
 2196              		.loc 4 322 0
 2197 0de0 E59F02E8 		ldr	r0, .L350+160
 2198              		bl	uart0_printf
 2199 0de4 EBFFFFFE 		.loc 4 323 0
 2200              		ldr	r0, .L350+164
 2201 0de8 E59F02E4 		bl	uart0_printf
 2202 0dec EBFFFFFE 		.loc 4 324 0
 2203              		ldr	r0, .L350+168
 2204 0df0 E375000C 		bl	uart0_printf
 2205 0df4 0A00000F 		.loc 4 325 0
 2206 0df8 E3A04000 		ldr	r0, .L350+172
 2207              		bl	uart0_printf
 2208 0dfc E285700C 		.loc 4 326 0
 2209 0e00 E1A06004 		ldr	r0, .L350+176
 2210              		bl	uart0_printf
 2211 0e04 E5D45000 		.loc 4 327 0
 2212              		ldr	r0, .L350+180
 2213              		bl	uart0_printf
 2214              		.loc 4 328 0
 2215 0e08 E3A00077 		ldr	r0, .L350+184
 2216 0e0c E1A01008 		bl	uart0_printf
 2217 0e10 E1A02006 		.loc 4 329 0
 2218 0e14 E3A03002 		ldr	r0, .L350+188
 2219 0e18 E58D5000 		bl	uart0_printf
 2220 0e1c EBFFFFFE 		.loc 4 330 0
 2221 0e20 E3500000 		ldr	r0, .L350+192
 2222 0e24 1AFFFFF7 		bl	uart0_printf
 2223              		.loc 4 331 0
 2224 0e28 E2844001 		ldr	r0, .L350+196
 2225 0e2c E1540007 		bl	uart0_printf
 2226 0e30 E1A06004 		.loc 4 332 0
 2227 0e34 1AFFFFF2 		ldr	r0, .L350+200
 2228              		bl	uart0_printf
 2229              		.loc 4 333 0
 2230              		ldr	r0, .L350+204
 2231 0e38 E59F0298 		bl	uart0_printf
 2232 0e3c EBFFFFFE 		.loc 4 334 0
 2233 0e40 EAFFFFB6 		ldr	r0, .L350+208
 2234              		bl	uart0_printf
 2235              		.loc 4 335 0
 2236              		ldr	r0, .L350+212
 2237 0e44 E1A00004 		bl	uart0_printf
 2238 0e48 EBFFFFFE 		.loc 4 336 0
 2239              		ldr	r0, .L350+216
 2240 0e4c E59F0288 		bl	uart0_printf
 2241 0e50 EBFFFFFE 		.loc 4 337 0
 2242              		ldr	r0, .L350+220
 2243 0e54 E59F0284 		bl	uart0_printf
 2244 0e58 EBFFFFFE 		b	.L228
 2245              	.L345:
 2246 0e5c E59F0280 		.loc 4 127 0
 2247 0e60 EBFFFFFE 		ldrb	r3, [sp, #17]	@ zero_extendqisi2
 2248              		cmp	r3, #66
 2249 0e64 E59F027C 		bne	.L247
 2250 0e68 EBFFFFFE 		ldrb	r3, [sp, #18]	@ zero_extendqisi2
 2251              		cmp	r3, #82
 2252 0e6c E59F0278 		bne	.L247
 2253 0e70 EBFFFFFE 		.loc 4 128 0
 2254              		mov	r1, #4
 2255 0e74 E59F0274 		mov	r2, #0
 2256 0e78 EBFFFFFE 		mov	r0, r9
 2257              		bl	uart0_scanf
 2258 0e7c E59F0270 		.loc 4 129 0
 2259 0e80 EBFFFFFE 		mov	r0, r9
 2260              		bl	qbytes_to_long
 2261 0e84 E59F026C 		.loc 4 130 0
 2262 0e88 EBFFFFFE 		mov	r3, #32512
 2263              		add	r3, r3, #248
 2264 0e8c E59F0268 	.LVL180:
 2265 0e90 EBFFFFFE 		cmp	r0, r3
 2266              		bhi	.L285
 2267 0e94 E59F0264 		.loc 4 136 0
 2268 0e98 EBFFFFFE 		add	r4, r0, #67108864
 2269              	.LVL181:
 2270 0e9c E59F0260 		add	r4, r4, #4
 2271 0ea0 EBFFFFFE 		cmp	r4, #67108864
 2272              		beq	.L255
 2273 0ea4 E59F025C 		.loc 4 132 0
 2274 0ea8 EBFFFFFE 		mov	r5, #67108864
 2275              	.LVL182:
 2276 0eac E59F0258 	.L256:
 2277 0eb0 EBFFFFFE 		.loc 4 137 0
 2278              		mov	r1, #4
 2279 0eb4 E59F0254 		mov	r2, #0
 2280 0eb8 EBFFFFFE 		mov	r0, r9
 2281              	.LVL183:
 2282 0ebc E59F0250 		bl	uart0_scanf
 2283 0ec0 EBFFFFFE 		.loc 4 138 0
 2284              		mov	r0, r9
 2285 0ec4 E59F024C 		bl	qbytes_to_long
 2286 0ec8 EBFFFFFE 		str	r0, [sp, #20]
 2287              		.loc 4 139 0
 2288 0ecc E59F0248 		str	r0, [r5], #4
 2289 0ed0 EBFFFFFE 		.loc 4 136 0
 2290              		cmp	r5, r4
 2291 0ed4 E59F0244 		bne	.L256
 2292 0ed8 EBFFFFFE 	.LVL184:
 2293              	.L255:
 2294 0edc E59F0240 		.loc 4 143 0
 2295 0ee0 EBFFFFFE 		ldr	r0, .L350+40
 2296              	.LVL185:
 2297 0ee4 E59F023C 		bl	uart0_printf
 2298 0ee8 EBFFFFFE 		.loc 4 144 0
 2299 0eec EAFFFE55 		bl	print_intro
 2300              		b	.L228
 2301              	.LVL186:
 2302 0ef0 E5DD3011 	.L238:
 2303 0ef4 E3530042 		.loc 4 275 0
 2304 0ef8 1AFFFEE6 		mov	r0, r4
 2305 0efc E5DD3012 		bl	io_uart0_send_byte
 2306 0f00 E3530052 		.loc 4 276 0
 2307 0f04 1AFFFEE3 		ldr	r0, .L350+224
 2308              		bl	uart0_printf
 2309 0f08 E3A01004 		.loc 4 277 0
 2310 0f0c E3A02000 		mov	r0, r9
 2311 0f10 E1A00009 		mov	r1, #2
 2312 0f14 EBFFFFFE 		mov	r2, #1
 2313              		bl	uart0_scanf
 2314 0f18 E1A00009 		.loc 4 278 0
 2315 0f1c EBFFFFFE 		mov	r0, r9
 2316              		mov	r1, #2
 2317 0f20 E3A03C7F 		bl	hex_string_to_long
 2318 0f24 E28330F8 		.loc 4 279 0
 2319              		ands	r6, r0, #255
 2320 0f28 E1500003 	.LVL187:
 2321 0f2c 8A00003C 		beq	.L337
 2322              		.loc 4 283 0
 2323 0f30 E2804301 		ldr	r0, .L350+228
 2324              		bl	uart0_printf
 2325 0f34 E2844004 		.loc 4 284 0
 2326 0f38 E3540301 		ldr	r0, .L350+232
 2327 0f3c 0A00000A 		bl	uart0_printf
 2328              	.L300:
 2329 0f40 E3A05301 		.loc 4 285 0
 2330              		bl	io_uart0_read_byte
 2331              		cmn	r0, #1
 2332              		beq	.L300
 2333 0f44 E3A01004 	.L318:
 2334 0f48 E3A02000 		.loc 4 286 0
 2335 0f4c E1A00009 		bl	io_uart0_read_byte
 2336              		cmn	r0, #1
 2337 0f50 EBFFFFFE 		bne	.L318
 2338              		.loc 4 395 0
 2339 0f54 E1A00009 		mov	r5, #0
 2340 0f58 EBFFFFFE 	.LVL188:
 2341 0f5c E58D0014 		b	.L339
 2342              	.LVL189:
 2343 0f60 E4850004 	.L349:
 2344              		.loc 4 289 0
 2345 0f64 E1550004 		cmp	r4, #0
 2346 0f68 1AFFFFF5 		bge	.L348
 2347              	.LVL190:
 2348              	.L339:
 2349              		.loc 4 290 0
 2350 0f6c E59F0100 		mov	ip, #0
 2351              		mov	r2, r5
 2352 0f70 EBFFFFFE 		mov	r1, r6
 2353              		mov	r3, #2
 2354 0f74 EBFFFFFE 		mov	r0, #114
 2355 0f78 EAFFFE32 		str	ip, [sp, #0]
 2356              		bl	io_i2c0_byte_transfer
 2357              		mov	r4, r0
 2358              	.LVL191:
 2359 0f7c E1A00004 		.loc 4 291 0
 2360 0f80 EBFFFFFE 		bl	io_uart0_read_byte
 2361              		cmn	r0, #1
 2362 0f84 E59F01A0 		.loc 4 300 0
 2363 0f88 EBFFFFFE 		mov	r0, r4
 2364              		.loc 4 291 0
 2365 0f8c E1A00009 		beq	.L349
 2366 0f90 E3A01002 	.LVL192:
 2367 0f94 E3A02001 		.loc 4 297 0
 2368 0f98 EBFFFFFE 		ldr	r0, .L350+236
 2369              	.LVL193:
 2370 0f9c E1A00009 		bl	uart0_printf
 2371 0fa0 E3A01002 		b	.L308
 2372 0fa4 EBFFFFFE 	.LVL194:
 2373              	.L285:
 2374 0fa8 E21060FF 		.loc 4 247 0
 2375              		ldr	r0, .L350+240
 2376 0fac 0AFFFE88 	.LVL195:
 2377              		bl	uart0_printf
 2378 0fb0 E59F0178 		b	.L228
 2379 0fb4 EBFFFFFE 	.LVL196:
 2380              	.L348:
 2381 0fb8 E59F0174 		.loc 4 300 0
 2382 0fbc EBFFFFFE 		bl	io_uart0_send_byte
 2383              		.loc 4 287 0
 2384              		mov	r3, #65536
 2385 0fc0 EBFFFFFE 		add	r5, r5, #1
 2386 0fc4 E3700001 		sub	r3, r3, #1
 2387 0fc8 0AFFFFFC 		cmp	r5, r3
 2388              		bne	.L339
 2389              		b	.L308
 2390 0fcc EBFFFFFE 	.L351:
 2391 0fd0 E3700001 		.align	2
 2392 0fd4 1AFFFFFC 	.L350:
 395:main.c        **** 	while(1);
 2393              	.word	.LC12
 2394 0fd8 E3A05000 		.word	.LC13
 2395              		.word	.LC14
 2396 0fdc EA000001 		.word	.LC22
 2397              		.word	.LC24
 2398              		.word	.LC61
 2399              		.word	.LC62
 2400 0fe0 E3540000 		.word	.LC63
 2401 0fe4 AA000011 		.word	.LC20
 2402              		.word	.LC21
 2403              		.word	.LC25
 2404              		.word	.LC15
 2405 0fe8 E3A0C000 		.word	.LC17
 2406 0fec E1A02005 		.word	.LC58
 2407 0ff0 E1A01006 		.word	.LC59
 2408 0ff4 E3A03002 		.word	.LC23
 2409 0ff8 E3A00072 		.word	.LC60
 2410 0ffc E58DC000 		.word	.LC18
 2411 1000 EBFFFFFE 		.word	.LC19
 2412 1004 E1A04000 		.word	.LC35
 2413              		.word	.LC36
 2414              		.word	.LC37
 2415 1008 EBFFFFFE 		.word	.LC26
 2416 100c E3700001 		.word	.LC30
 2417              		.word	.LC31
 2418 1010 E1A00004 		.word	.LC27
 2419              		.word	.LC28
 2420 1014 0AFFFFF1 		.word	.LC29
 2421              		.word	.LC38
 2422              		.word	.LC39
 2423 1018 E59F0118 		.word	.LC40
 2424              		.word	.LC41
 2425 101c EBFFFFFE 		.word	.LC42
 2426 1020 EAFFFF20 		.word	.LC43
 2427              		.word	.LC44
 2428              		.word	.LC45
 2429              		.word	.LC46
 2430 1024 E59F0110 		.word	.LC47
 2431              		.word	.LC48
 2432 1028 EBFFFFFE 		.word	.LC49
 2433 102c EAFFFE05 		.word	.LC50
 2434              		.word	.LC51
 2435              		.word	.LC52
 2436              		.word	.LC53
 2437 1030 EBFFFFFE 		.word	.LC54
 2438              		.word	.LC55
 2439 1034 E3A03801 		.word	.LC56
 2440 1038 E2855001 		.word	.LC57
 2441 103c E2433001 		.word	.LC32
 2442 1040 E1550003 		.word	.LC33
 2443 1044 1AFFFFE7 		.word	.LC34
 2444 1048 EAFFFF16 		.word	.LC64
 2445              		.word	.LC16
 2446              	.LFE35:
 2448 104c 00000118 		.align	2
 2449 1050 00000164 		.global	io_enable_xint
 2451 1058 000001F4 	io_enable_xint:
 2452 105c 0000023C 	.LFB23:
 2453 1060 00000284 		.loc 1 444 0
 2454 1064 000002CC 		@ args = 0, pretend = 0, frame = 0
 2455 1068 00000338 		@ frame_needed = 0, uses_anonymous_args = 0
 2456 106c 00000370 		@ link register save eliminated.
 2457 1070 00000380 		@ lr needed for prologue
 2458 1074 00000384 	.LBB6:
 2459 1078 00000510 	.LBB7:
 2460 107c 00000574 		.loc 1 428 0
 2461 1080 00000C84 		 mrs r3, cpsr
 2462 1084 00000CA8 	.LVL197:
 2463 1088 00000CBC 	.LBE7:
 2464 108c 000004B4 	.LBE6:
 2465 1090 000004F0 	.LBB8:
 2466 1094 000005A0 	.LBB9:
 2467 1098 00000388 		.loc 1 437 0
 2468 109c 00000420 		bic	r3, r3, #192
 2469 10a0 00000C08 	.LVL198:
 2470 10a4 00000C38 		 msr cpsr, r3
 2471 10a8 00000560 	.LBE9:
 2472 10ac 00000C60 	.LBE8:
 2473 10b0 00000448 		.loc 1 448 0
 2474 10b4 00000490 		mov	pc, lr
 2475 10b8 0000075C 	.LFE23:
 2477 10c0 000007FC 		.align	2
 2478 10c4 000005C0 		.global	io_disable_xint
 2480 10cc 0000068C 	io_disable_xint:
 2481 10d0 00000620 	.LFB24:
 2482 10d4 00000638 		.loc 1 454 0
 2483 10d8 00000658 		@ args = 0, pretend = 0, frame = 0
 2484 10dc 00000840 		@ frame_needed = 0, uses_anonymous_args = 0
 2485 10e0 0000085C 		@ link register save eliminated.
 2486 10e4 0000087C 		@ lr needed for prologue
 2487 10e8 000008BC 	.LBB14:
 2488 10ec 000008F0 	.LBB15:
 2489 10f0 0000092C 		.loc 1 428 0
 2490 10f4 00000968 		 mrs r3, cpsr
 2491 10f8 0000098C 	.LVL199:
 2492 10fc 000009C8 	.LBE15:
 2493 1100 000009E4 	.LBE14:
 2494 1104 000009FC 	.LBB16:
 2495 1108 00000A44 	.LBB17:
 2496 110c 00000A84 		.loc 1 437 0
 2497 1110 00000ABC 		orr	r3, r3, #192
 2498 1114 00000AE0 	.LVL200:
 2499 1118 00000B24 		 msr cpsr, r3
 2500 111c 00000B64 	.LBE17:
 2501 1120 00000B90 	.LBE16:
 2502 1124 00000BBC 		.loc 1 458 0
 2503 1128 00000BE0 		mov	pc, lr
 2504 112c 00000698 	.LFE24:
 2506 1134 00000714 		.section	.debug_frame,"",%progbits
 2507 1138 00000CD0 	.Lframe0:
 2508 113c 000003FC 		.4byte	.LECIE0-.LSCIE0
 2509              	.LSCIE0:
 2510              		.4byte	0xffffffff
 2511              		.byte	0x1
 2512              		.ascii	"\000"
 2513              		.uleb128 0x1
 2514              		.sleb128 -4
 2515              		.byte	0xe
 417:../lib/io_driver.c **** //		case 14:         asm volatile ("mcr p15,0,%0,c14,c14,0" : /* no outputs */ : "r" (_cp_val)); br
 418:../lib/io_driver.c **** //		case 15:         asm volatile ("mcr p15,0,%0,c15,c15,0" : /* no outputs */ : "r" (_cp_val)); br
 419:../lib/io_driver.c **** 		default:         break;
 420:../lib/io_driver.c **** 	}
 421:../lib/io_driver.c **** }
 422:../lib/io_driver.c **** // ******************************************************************************
 423:../lib/io_driver.c **** // read CMSR value
 424:../lib/io_driver.c ****    static inline unsigned long get_cmsr(void)
 425:../lib/io_driver.c **** // ******************************************************************************
 426:../lib/io_driver.c **** {
 427:../lib/io_driver.c **** 	unsigned long _cmsr;
 428:../lib/io_driver.c **** 	asm volatile (" mrs %0, cpsr" : "=r" (_cmsr) : /* no inputs */  );
 429:../lib/io_driver.c **** 	return _cmsr;
 430:../lib/io_driver.c **** }
 431:../lib/io_driver.c **** 
 432:../lib/io_driver.c **** // ******************************************************************************
 433:../lib/io_driver.c **** // write CMSR value
 434:../lib/io_driver.c ****    static inline void set_cmsr(unsigned long _cmsr)
 435:../lib/io_driver.c **** // ******************************************************************************
 436:../lib/io_driver.c **** {
 437:../lib/io_driver.c **** 	asm volatile (" msr cpsr, %0" : /* no outputs */ : "r" (_cmsr)  );
 438:../lib/io_driver.c **** }
 439:../lib/io_driver.c **** 
 440:../lib/io_driver.c **** // ******************************************************************************
 441:../lib/io_driver.c **** // Enable all external INTs
 442:../lib/io_driver.c ****    void io_enable_xint(void)
 443:../lib/io_driver.c **** // ******************************************************************************
 444:../lib/io_driver.c **** {
 2516              	yte	.LFB2
 2517              		.4byte	.LFE2-.LFB2
 2518              		.align	2
 2519              	.LEFDE0:
 2520              	.LSFDE2:
 2521              		.4byte	.LEFDE2-.LASFDE2
 2522              	.LASFDE2:
 2523              		.4byte	.Lframe0
 2524 1140 E10F3000 		.4byte	.LFB3
 2525              		.4byte	.LFE3-.LFB3
 2526              		.align	2
 2527              	.LEFDE2:
 2528              	.LSFDE4:
 2529              		.4byte	.LEFDE4-.LASFDE4
 2530              	.LASFDE4:
 2531 1144 E3C330C0 		.4byte	.Lframe0
 2532              		.4byte	.LFB4
 2533 1148 E129F003 		.4byte	.LFE4-.LFB4
 2534              		.align	2
 2535              	.LEFDE4:
 445:../lib/io_driver.c **** 	unsigned long _cmsr = get_cmsr();
 446:../lib/io_driver.c **** 	_cmsr = _cmsr & ~(1<<CMSR_FIQ) &~(1<<CMSR_IRQ);
 447:../lib/io_driver.c **** 	set_cmsr(_cmsr);
 448:../lib/io_driver.c **** }
 2536              	FDE6-.LASFDE6
 2537 114c E1A0F00E 	.LASFDE6:
 2538              		.4byte	.Lframe0
 2539              		.4byte	.LFB5
 2540              		.4byte	.LFE5-.LFB5
 2541              		.align	2
 2542              	.LEFDE6:
 2543              	.LSFDE8:
 2544              		.4byte	.LEFDE8-.LASFDE8
 449:../lib/io_driver.c **** 
 450:../lib/io_driver.c **** // ******************************************************************************
 451:../lib/io_driver.c **** // Disable all global IBTs
 452:../lib/io_driver.c ****    void io_disable_xint(void)
 453:../lib/io_driver.c **** // ******************************************************************************
 454:../lib/io_driver.c **** {
 2545              	
 2546              		.4byte	.Lframe0
 2547              		.4byte	.LFB6
 2548              		.4byte	.LFE6-.LFB6
 2549              		.align	2
 2550              	.LEFDE8:
 2551              	.LSFDE10:
 2552              		.4byte	.LEFDE10-.LASFDE10
 2553 1150 E10F3000 	.LASFDE10:
 2554              		.4byte	.Lframe0
 2555              		.4byte	.LFB7
 2556              		.4byte	.LFE7-.LFB7
 2557              		.align	2
 2558              	.LEFDE10:
 2559              	.LSFDE12:
 2560 1154 E38330C0 		.4byte	.LEFDE12-.LASFDE12
 2561              	.LASFDE12:
 2562 1158 E129F003 		.4byte	.Lframe0
 2563              		.4byte	.LFB8
 2564              		.4byte	.LFE8-.LFB8
 455:../lib/io_driver.c **** 	unsigned long _cmsr = get_cmsr();
 456:../lib/io_driver.c **** 	_cmsr = _cmsr | (1<<CMSR_FIQ) | (1<<CMSR_IRQ);
 457:../lib/io_driver.c **** 	set_cmsr(_cmsr);
 458:../lib/io_driver.c **** }
 2565              	.LCFI0-.LFB8
 2566 115c E1A0F00E 		.byte	0xe
 2567              		.uleb128 0x8
 2568              		.byte	0x8e
 2945              	.LLST14: